
/home/cyh627/ics2022/nanos-lite/build/nanos-lite-riscv32-nemu.elf：     文件格式 elf32-littleriscv


Disassembly of section .text:

80000000 <_start>:
80000000:	00000413          	li	s0,0
80000004:	0021f117          	auipc	sp,0x21f
80000008:	ffc10113          	addi	sp,sp,-4 # 8021f000 <_end>
8000000c:	71c010ef          	jal	ra,80001728 <_trm_init>

80000010 <main>:
80000010:	800035b7          	lui	a1,0x80003
80000014:	80002537          	lui	a0,0x80002
80000018:	ff010113          	addi	sp,sp,-16
8000001c:	b6f58593          	addi	a1,a1,-1169 # 80002b6f <_end+0xffde3b6f>
80000020:	5d850513          	addi	a0,a0,1496 # 800025d8 <_end+0xffde35d8>
80000024:	00112623          	sw	ra,12(sp)
80000028:	00812423          	sw	s0,8(sp)
8000002c:	00912223          	sw	s1,4(sp)
80000030:	224020ef          	jal	ra,80002254 <printf>
80000034:	800044b7          	lui	s1,0x80004
80000038:	80002437          	lui	s0,0x80002
8000003c:	80002537          	lui	a0,0x80002
80000040:	b7848693          	addi	a3,s1,-1160 # 80003b78 <_end+0xffde4b78>
80000044:	00d00613          	li	a2,13
80000048:	5dc40593          	addi	a1,s0,1500 # 800025dc <_end+0xffde35dc>
8000004c:	60850513          	addi	a0,a0,1544 # 80002608 <_end+0xffde3608>
80000050:	204020ef          	jal	ra,80002254 <printf>
80000054:	800027b7          	lui	a5,0x80002
80000058:	80002737          	lui	a4,0x80002
8000005c:	80002537          	lui	a0,0x80002
80000060:	64078793          	addi	a5,a5,1600 # 80002640 <_end+0xffde3640>
80000064:	64c70713          	addi	a4,a4,1612 # 8000264c <_end+0xffde364c>
80000068:	b7848693          	addi	a3,s1,-1160
8000006c:	00e00613          	li	a2,14
80000070:	5dc40593          	addi	a1,s0,1500
80000074:	65850513          	addi	a0,a0,1624 # 80002658 <_end+0xffde3658>
80000078:	1dc020ef          	jal	ra,80002254 <printf>
8000007c:	039000ef          	jal	ra,800008b4 <init_mm>
80000080:	484000ef          	jal	ra,80000504 <init_device>
80000084:	144000ef          	jal	ra,800001c8 <init_ramdisk>
80000088:	744000ef          	jal	ra,800007cc <init_irq>
8000008c:	5a8010ef          	jal	ra,80001634 <init_fs>
80000090:	0e5000ef          	jal	ra,80000974 <init_proc>
80000094:	80002537          	lui	a0,0x80002
80000098:	b7848693          	addi	a3,s1,-1160
8000009c:	01e00613          	li	a2,30
800000a0:	5dc40593          	addi	a1,s0,1500
800000a4:	68450513          	addi	a0,a0,1668 # 80002684 <_end+0xffde3684>
800000a8:	1ac020ef          	jal	ra,80002254 <printf>
800000ac:	2e5010ef          	jal	ra,80001b90 <yield>
800000b0:	80002537          	lui	a0,0x80002
800000b4:	b7848693          	addi	a3,s1,-1160
800000b8:	02400613          	li	a2,36
800000bc:	5dc40593          	addi	a1,s0,1500
800000c0:	6b450513          	addi	a0,a0,1716 # 800026b4 <_end+0xffde36b4>
800000c4:	190020ef          	jal	ra,80002254 <printf>
800000c8:	00100513          	li	a0,1
800000cc:	650010ef          	jal	ra,8000171c <halt>

800000d0 <ramdisk_read>:
800000d0:	80004737          	lui	a4,0x80004
800000d4:	801ec7b7          	lui	a5,0x801ec
800000d8:	ff010113          	addi	sp,sp,-16
800000dc:	b9970713          	addi	a4,a4,-1127 # 80003b99 <_end+0xffde4b99>
800000e0:	f9978793          	addi	a5,a5,-103 # 801ebf99 <_end+0xfffccf99>
800000e4:	00112623          	sw	ra,12(sp)
800000e8:	00812423          	sw	s0,8(sp)
800000ec:	00c586b3          	add	a3,a1,a2
800000f0:	40e787b3          	sub	a5,a5,a4
800000f4:	02d7e263          	bltu	a5,a3,80000118 <ramdisk_read+0x48>
800000f8:	00b705b3          	add	a1,a4,a1
800000fc:	00060413          	mv	s0,a2
80000100:	4b4020ef          	jal	ra,800025b4 <memcpy>
80000104:	00c12083          	lw	ra,12(sp)
80000108:	00040513          	mv	a0,s0
8000010c:	00812403          	lw	s0,8(sp)
80000110:	01010113          	addi	sp,sp,16
80000114:	00008067          	ret
80000118:	80002737          	lui	a4,0x80002
8000011c:	800026b7          	lui	a3,0x80002
80000120:	800025b7          	lui	a1,0x80002
80000124:	80002537          	lui	a0,0x80002
80000128:	6f870713          	addi	a4,a4,1784 # 800026f8 <_end+0xffde36f8>
8000012c:	7f868693          	addi	a3,a3,2040 # 800027f8 <_end+0xffde37f8>
80000130:	00f00613          	li	a2,15
80000134:	71858593          	addi	a1,a1,1816 # 80002718 <_end+0xffde3718>
80000138:	74850513          	addi	a0,a0,1864 # 80002748 <_end+0xffde3748>
8000013c:	118020ef          	jal	ra,80002254 <printf>
80000140:	00100513          	li	a0,1
80000144:	5d8010ef          	jal	ra,8000171c <halt>

80000148 <ramdisk_write>:
80000148:	800046b7          	lui	a3,0x80004
8000014c:	801ec7b7          	lui	a5,0x801ec
80000150:	ff010113          	addi	sp,sp,-16
80000154:	b9968693          	addi	a3,a3,-1127 # 80003b99 <_end+0xffde4b99>
80000158:	f9978793          	addi	a5,a5,-103 # 801ebf99 <_end+0xfffccf99>
8000015c:	00112623          	sw	ra,12(sp)
80000160:	00812423          	sw	s0,8(sp)
80000164:	00c58833          	add	a6,a1,a2
80000168:	40d787b3          	sub	a5,a5,a3
8000016c:	0307e663          	bltu	a5,a6,80000198 <ramdisk_write+0x50>
80000170:	00058713          	mv	a4,a1
80000174:	00050593          	mv	a1,a0
80000178:	00e68533          	add	a0,a3,a4
8000017c:	00060413          	mv	s0,a2
80000180:	434020ef          	jal	ra,800025b4 <memcpy>
80000184:	00c12083          	lw	ra,12(sp)
80000188:	00040513          	mv	a0,s0
8000018c:	00812403          	lw	s0,8(sp)
80000190:	01010113          	addi	sp,sp,16
80000194:	00008067          	ret
80000198:	80002737          	lui	a4,0x80002
8000019c:	800026b7          	lui	a3,0x80002
800001a0:	800025b7          	lui	a1,0x80002
800001a4:	80002537          	lui	a0,0x80002
800001a8:	6f870713          	addi	a4,a4,1784 # 800026f8 <_end+0xffde36f8>
800001ac:	7e868693          	addi	a3,a3,2024 # 800027e8 <_end+0xffde37e8>
800001b0:	01800613          	li	a2,24
800001b4:	71858593          	addi	a1,a1,1816 # 80002718 <_end+0xffde3718>
800001b8:	74850513          	addi	a0,a0,1864 # 80002748 <_end+0xffde3748>
800001bc:	098020ef          	jal	ra,80002254 <printf>
800001c0:	00100513          	li	a0,1
800001c4:	558010ef          	jal	ra,8000171c <halt>

800001c8 <init_ramdisk>:
800001c8:	801ec7b7          	lui	a5,0x801ec
800001cc:	80004737          	lui	a4,0x80004
800001d0:	b9970693          	addi	a3,a4,-1127 # 80003b99 <_end+0xffde4b99>
800001d4:	f9978813          	addi	a6,a5,-103 # 801ebf99 <_end+0xfffccf99>
800001d8:	40d80833          	sub	a6,a6,a3
800001dc:	800025b7          	lui	a1,0x80002
800001e0:	800026b7          	lui	a3,0x80002
800001e4:	80002537          	lui	a0,0x80002
800001e8:	f9978793          	addi	a5,a5,-103
800001ec:	b9970713          	addi	a4,a4,-1127
800001f0:	7d868693          	addi	a3,a3,2008 # 800027d8 <_end+0xffde37d8>
800001f4:	01f00613          	li	a2,31
800001f8:	71858593          	addi	a1,a1,1816 # 80002718 <_end+0xffde3718>
800001fc:	78c50513          	addi	a0,a0,1932 # 8000278c <_end+0xffde378c>
80000200:	0540206f          	j	80002254 <printf>

80000204 <serial_write>:
80000204:	ff010113          	addi	sp,sp,-16
80000208:	00812423          	sw	s0,8(sp)
8000020c:	00050413          	mv	s0,a0
80000210:	01212023          	sw	s2,0(sp)
80000214:	00112623          	sw	ra,12(sp)
80000218:	00912223          	sw	s1,4(sp)
8000021c:	00060913          	mv	s2,a2
80000220:	171010ef          	jal	ra,80001b90 <yield>
80000224:	02040c63          	beqz	s0,8000025c <serial_write+0x58>
80000228:	012404b3          	add	s1,s0,s2
8000022c:	00090a63          	beqz	s2,80000240 <serial_write+0x3c>
80000230:	00044503          	lbu	a0,0(s0)
80000234:	00140413          	addi	s0,s0,1
80000238:	4d8010ef          	jal	ra,80001710 <putch>
8000023c:	fe941ae3          	bne	s0,s1,80000230 <serial_write+0x2c>
80000240:	00c12083          	lw	ra,12(sp)
80000244:	00812403          	lw	s0,8(sp)
80000248:	00412483          	lw	s1,4(sp)
8000024c:	00012903          	lw	s2,0(sp)
80000250:	00000513          	li	a0,0
80000254:	01010113          	addi	sp,sp,16
80000258:	00008067          	ret
8000025c:	80003737          	lui	a4,0x80003
80000260:	800036b7          	lui	a3,0x80003
80000264:	800035b7          	lui	a1,0x80003
80000268:	80002537          	lui	a0,0x80002
8000026c:	80870713          	addi	a4,a4,-2040 # 80002808 <_end+0xffde3808>
80000270:	a5868693          	addi	a3,a3,-1448 # 80002a58 <_end+0xffde3a58>
80000274:	01600613          	li	a2,22
80000278:	81458593          	addi	a1,a1,-2028 # 80002814 <_end+0xffde3814>
8000027c:	74850513          	addi	a0,a0,1864 # 80002748 <_end+0xffde3748>
80000280:	7d5010ef          	jal	ra,80002254 <printf>
80000284:	00100513          	li	a0,1
80000288:	494010ef          	jal	ra,8000171c <halt>

8000028c <events_read>:
8000028c:	fe010113          	addi	sp,sp,-32
80000290:	00112e23          	sw	ra,28(sp)
80000294:	00812c23          	sw	s0,24(sp)
80000298:	01212823          	sw	s2,16(sp)
8000029c:	01312623          	sw	s3,12(sp)
800002a0:	00050413          	mv	s0,a0
800002a4:	00060993          	mv	s3,a2
800002a8:	00912a23          	sw	s1,20(sp)
800002ac:	0e5010ef          	jal	ra,80001b90 <yield>
800002b0:	802165b7          	lui	a1,0x80216
800002b4:	01058913          	addi	s2,a1,16 # 80216010 <_end+0xffff7010>
800002b8:	00800513          	li	a0,8
800002bc:	01058593          	addi	a1,a1,16
800002c0:	574010ef          	jal	ra,80001834 <ioe_read>
800002c4:	00492783          	lw	a5,4(s2)
800002c8:	0a078263          	beqz	a5,8000036c <events_read+0xe0>
800002cc:	00094783          	lbu	a5,0(s2)
800002d0:	00300613          	li	a2,3
800002d4:	08079263          	bnez	a5,80000358 <events_read+0xcc>
800002d8:	800035b7          	lui	a1,0x80003
800002dc:	84858593          	addi	a1,a1,-1976 # 80002848 <_end+0xffde3848>
800002e0:	00040513          	mv	a0,s0
800002e4:	1cc020ef          	jal	ra,800024b0 <strncat>
800002e8:	00492783          	lw	a5,4(s2)
800002ec:	801ec4b7          	lui	s1,0x801ec
800002f0:	f9c48493          	addi	s1,s1,-100 # 801ebf9c <_end+0xfffccf9c>
800002f4:	00279793          	slli	a5,a5,0x2
800002f8:	00f487b3          	add	a5,s1,a5
800002fc:	0007a583          	lw	a1,0(a5)
80000300:	ffd98993          	addi	s3,s3,-3
80000304:	00098613          	mv	a2,s3
80000308:	00040513          	mv	a0,s0
8000030c:	1a4020ef          	jal	ra,800024b0 <strncat>
80000310:	00492783          	lw	a5,4(s2)
80000314:	00279793          	slli	a5,a5,0x2
80000318:	00f484b3          	add	s1,s1,a5
8000031c:	0004a503          	lw	a0,0(s1)
80000320:	0c4020ef          	jal	ra,800023e4 <strlen>
80000324:	800045b7          	lui	a1,0x80004
80000328:	40a98633          	sub	a2,s3,a0
8000032c:	a4858593          	addi	a1,a1,-1464 # 80003a48 <_end+0xffde4a48>
80000330:	00040513          	mv	a0,s0
80000334:	17c020ef          	jal	ra,800024b0 <strncat>
80000338:	00040513          	mv	a0,s0
8000033c:	01812403          	lw	s0,24(sp)
80000340:	01c12083          	lw	ra,28(sp)
80000344:	01412483          	lw	s1,20(sp)
80000348:	01012903          	lw	s2,16(sp)
8000034c:	00c12983          	lw	s3,12(sp)
80000350:	02010113          	addi	sp,sp,32
80000354:	0900206f          	j	800023e4 <strlen>
80000358:	800035b7          	lui	a1,0x80003
8000035c:	84458593          	addi	a1,a1,-1980 # 80002844 <_end+0xffde3844>
80000360:	00040513          	mv	a0,s0
80000364:	14c020ef          	jal	ra,800024b0 <strncat>
80000368:	f81ff06f          	j	800002e8 <events_read+0x5c>
8000036c:	01c12083          	lw	ra,28(sp)
80000370:	01812403          	lw	s0,24(sp)
80000374:	01412483          	lw	s1,20(sp)
80000378:	01012903          	lw	s2,16(sp)
8000037c:	00c12983          	lw	s3,12(sp)
80000380:	00000513          	li	a0,0
80000384:	02010113          	addi	sp,sp,32
80000388:	00008067          	ret

8000038c <dispinfo_read>:
8000038c:	fd010113          	addi	sp,sp,-48
80000390:	801ed5b7          	lui	a1,0x801ed
80000394:	02812423          	sw	s0,40(sp)
80000398:	02912223          	sw	s1,36(sp)
8000039c:	00050413          	mv	s0,a0
800003a0:	00058493          	mv	s1,a1
800003a4:	00900513          	li	a0,9
800003a8:	00058593          	mv	a1,a1
800003ac:	02112623          	sw	ra,44(sp)
800003b0:	03212023          	sw	s2,32(sp)
800003b4:	480010ef          	jal	ra,80001834 <ioe_read>
800003b8:	800035b7          	lui	a1,0x80003
800003bc:	0044a903          	lw	s2,4(s1)
800003c0:	84c58593          	addi	a1,a1,-1972 # 8000284c <_end+0xffde384c>
800003c4:	00040513          	mv	a0,s0
800003c8:	0084a483          	lw	s1,8(s1)
800003cc:	048020ef          	jal	ra,80002414 <strcpy>
800003d0:	00010593          	mv	a1,sp
800003d4:	00090513          	mv	a0,s2
800003d8:	761010ef          	jal	ra,80002338 <itoa>
800003dc:	00050593          	mv	a1,a0
800003e0:	00040513          	mv	a0,s0
800003e4:	06c020ef          	jal	ra,80002450 <strcat>
800003e8:	800035b7          	lui	a1,0x80003
800003ec:	85458593          	addi	a1,a1,-1964 # 80002854 <_end+0xffde3854>
800003f0:	00040513          	mv	a0,s0
800003f4:	05c020ef          	jal	ra,80002450 <strcat>
800003f8:	00010593          	mv	a1,sp
800003fc:	00048513          	mv	a0,s1
80000400:	739010ef          	jal	ra,80002338 <itoa>
80000404:	00050593          	mv	a1,a0
80000408:	00040513          	mv	a0,s0
8000040c:	044020ef          	jal	ra,80002450 <strcat>
80000410:	800045b7          	lui	a1,0x80004
80000414:	a4858593          	addi	a1,a1,-1464 # 80003a48 <_end+0xffde4a48>
80000418:	00040513          	mv	a0,s0
8000041c:	034020ef          	jal	ra,80002450 <strcat>
80000420:	00040513          	mv	a0,s0
80000424:	7c1010ef          	jal	ra,800023e4 <strlen>
80000428:	02c12083          	lw	ra,44(sp)
8000042c:	02812403          	lw	s0,40(sp)
80000430:	02412483          	lw	s1,36(sp)
80000434:	02012903          	lw	s2,32(sp)
80000438:	03010113          	addi	sp,sp,48
8000043c:	00008067          	ret

80000440 <fb_write>:
80000440:	ff010113          	addi	sp,sp,-16
80000444:	00812423          	sw	s0,8(sp)
80000448:	00060413          	mv	s0,a2
8000044c:	00912223          	sw	s1,4(sp)
80000450:	01212023          	sw	s2,0(sp)
80000454:	00112623          	sw	ra,12(sp)
80000458:	00050913          	mv	s2,a0
8000045c:	00058493          	mv	s1,a1
80000460:	730010ef          	jal	ra,80001b90 <yield>
80000464:	06040063          	beqz	s0,800004c4 <fb_write+0x84>
80000468:	801ed7b7          	lui	a5,0x801ed
8000046c:	0047a703          	lw	a4,4(a5) # 801ed004 <_end+0xfffce004>
80000470:	801ed5b7          	lui	a1,0x801ed
80000474:	01058793          	addi	a5,a1,16 # 801ed010 <_end+0xfffce010>
80000478:	02e4f6b3          	remu	a3,s1,a4
8000047c:	00b00513          	li	a0,11
80000480:	00100613          	li	a2,1
80000484:	01058593          	addi	a1,a1,16
80000488:	0127a423          	sw	s2,8(a5)
8000048c:	0087a623          	sw	s0,12(a5)
80000490:	00c7a823          	sw	a2,16(a5)
80000494:	00078a23          	sb	zero,20(a5)
80000498:	02e4d4b3          	divu	s1,s1,a4
8000049c:	00d7a023          	sw	a3,0(a5)
800004a0:	0097a223          	sw	s1,4(a5)
800004a4:	3ac010ef          	jal	ra,80001850 <ioe_write>
800004a8:	00c12083          	lw	ra,12(sp)
800004ac:	00040513          	mv	a0,s0
800004b0:	00812403          	lw	s0,8(sp)
800004b4:	00412483          	lw	s1,4(sp)
800004b8:	00012903          	lw	s2,0(sp)
800004bc:	01010113          	addi	sp,sp,16
800004c0:	00008067          	ret
800004c4:	801ed5b7          	lui	a1,0x801ed
800004c8:	01058793          	addi	a5,a1,16 # 801ed010 <_end+0xfffce010>
800004cc:	00b00513          	li	a0,11
800004d0:	00100713          	li	a4,1
800004d4:	01058593          	addi	a1,a1,16
800004d8:	00e78a23          	sb	a4,20(a5)
800004dc:	0007a623          	sw	zero,12(a5)
800004e0:	0007a823          	sw	zero,16(a5)
800004e4:	36c010ef          	jal	ra,80001850 <ioe_write>
800004e8:	00c12083          	lw	ra,12(sp)
800004ec:	00040513          	mv	a0,s0
800004f0:	00812403          	lw	s0,8(sp)
800004f4:	00412483          	lw	s1,4(sp)
800004f8:	00012903          	lw	s2,0(sp)
800004fc:	01010113          	addi	sp,sp,16
80000500:	00008067          	ret

80000504 <init_device>:
80000504:	800036b7          	lui	a3,0x80003
80000508:	800035b7          	lui	a1,0x80003
8000050c:	80003537          	lui	a0,0x80003
80000510:	ff010113          	addi	sp,sp,-16
80000514:	a4c68693          	addi	a3,a3,-1460 # 80002a4c <_end+0xffde3a4c>
80000518:	05b00613          	li	a2,91
8000051c:	81458593          	addi	a1,a1,-2028 # 80002814 <_end+0xffde3814>
80000520:	86050513          	addi	a0,a0,-1952 # 80002860 <_end+0xffde3860>
80000524:	00112623          	sw	ra,12(sp)
80000528:	52d010ef          	jal	ra,80002254 <printf>
8000052c:	00c12083          	lw	ra,12(sp)
80000530:	01010113          	addi	sp,sp,16
80000534:	2a80106f          	j	800017dc <ioe_init>

80000538 <sys_exit>:
80000538:	02852503          	lw	a0,40(a0)
8000053c:	ff010113          	addi	sp,sp,-16
80000540:	00112623          	sw	ra,12(sp)
80000544:	1d8010ef          	jal	ra,8000171c <halt>

80000548 <do_syscall>:
80000548:	04452703          	lw	a4,68(a0)
8000054c:	fe010113          	addi	sp,sp,-32
80000550:	00112e23          	sw	ra,28(sp)
80000554:	00812c23          	sw	s0,24(sp)
80000558:	00912a23          	sw	s1,20(sp)
8000055c:	01300793          	li	a5,19
80000560:	18e7ee63          	bltu	a5,a4,800006fc <do_syscall+0x1b4>
80000564:	800036b7          	lui	a3,0x80003
80000568:	00271793          	slli	a5,a4,0x2
8000056c:	b1468693          	addi	a3,a3,-1260 # 80002b14 <_end+0xffde3b14>
80000570:	00d787b3          	add	a5,a5,a3
80000574:	0007a783          	lw	a5,0(a5)
80000578:	00050413          	mv	s0,a0
8000057c:	00078067          	jr	a5
80000580:	80003537          	lui	a0,0x80003
80000584:	a6850513          	addi	a0,a0,-1432 # 80002a68 <_end+0xffde3a68>
80000588:	4cd010ef          	jal	ra,80002254 <printf>
8000058c:	604010ef          	jal	ra,80001b90 <yield>
80000590:	00000513          	li	a0,0
80000594:	01c12083          	lw	ra,28(sp)
80000598:	02a42423          	sw	a0,40(s0)
8000059c:	01812403          	lw	s0,24(sp)
800005a0:	01412483          	lw	s1,20(sp)
800005a4:	02010113          	addi	sp,sp,32
800005a8:	00008067          	ret
800005ac:	03052603          	lw	a2,48(a0)
800005b0:	02c52583          	lw	a1,44(a0)
800005b4:	02852503          	lw	a0,40(a0)
800005b8:	405000ef          	jal	ra,800011bc <fs_open>
800005bc:	01c12083          	lw	ra,28(sp)
800005c0:	02a42423          	sw	a0,40(s0)
800005c4:	01812403          	lw	s0,24(sp)
800005c8:	01412483          	lw	s1,20(sp)
800005cc:	02010113          	addi	sp,sp,32
800005d0:	00008067          	ret
800005d4:	03052603          	lw	a2,48(a0)
800005d8:	02c52583          	lw	a1,44(a0)
800005dc:	02852503          	lw	a0,40(a0)
800005e0:	621000ef          	jal	ra,80001400 <fs_read>
800005e4:	01c12083          	lw	ra,28(sp)
800005e8:	02a42423          	sw	a0,40(s0)
800005ec:	01812403          	lw	s0,24(sp)
800005f0:	01412483          	lw	s1,20(sp)
800005f4:	02010113          	addi	sp,sp,32
800005f8:	00008067          	ret
800005fc:	03052603          	lw	a2,48(a0)
80000600:	02c52583          	lw	a1,44(a0)
80000604:	02852503          	lw	a0,40(a0)
80000608:	465000ef          	jal	ra,8000126c <fs_write>
8000060c:	01c12083          	lw	ra,28(sp)
80000610:	02a42423          	sw	a0,40(s0)
80000614:	01812403          	lw	s0,24(sp)
80000618:	01412483          	lw	s1,20(sp)
8000061c:	02010113          	addi	sp,sp,32
80000620:	00008067          	ret
80000624:	02852503          	lw	a0,40(a0)
80000628:	7d5000ef          	jal	ra,800015fc <fs_close>
8000062c:	01c12083          	lw	ra,28(sp)
80000630:	02a42423          	sw	a0,40(s0)
80000634:	01812403          	lw	s0,24(sp)
80000638:	01412483          	lw	s1,20(sp)
8000063c:	02010113          	addi	sp,sp,32
80000640:	00008067          	ret
80000644:	03052603          	lw	a2,48(a0)
80000648:	02c52583          	lw	a1,44(a0)
8000064c:	02852503          	lw	a0,40(a0)
80000650:	6bd000ef          	jal	ra,8000150c <fs_lseek>
80000654:	01c12083          	lw	ra,28(sp)
80000658:	02a42423          	sw	a0,40(s0)
8000065c:	01812403          	lw	s0,24(sp)
80000660:	01412483          	lw	s1,20(sp)
80000664:	02010113          	addi	sp,sp,32
80000668:	00008067          	ret
8000066c:	80003537          	lui	a0,0x80003
80000670:	a8c50513          	addi	a0,a0,-1396 # 80002a8c <_end+0xffde3a8c>
80000674:	3e1010ef          	jal	ra,80002254 <printf>
80000678:	03042603          	lw	a2,48(s0)
8000067c:	02c42583          	lw	a1,44(s0)
80000680:	02842503          	lw	a0,40(s0)
80000684:	3d0000ef          	jal	ra,80000a54 <execve>
80000688:	01c12083          	lw	ra,28(sp)
8000068c:	02a42423          	sw	a0,40(s0)
80000690:	01812403          	lw	s0,24(sp)
80000694:	01412483          	lw	s1,20(sp)
80000698:	02010113          	addi	sp,sp,32
8000069c:	00008067          	ret
800006a0:	00000793          	li	a5,0
800006a4:	00810593          	addi	a1,sp,8
800006a8:	00600513          	li	a0,6
800006ac:	00000813          	li	a6,0
800006b0:	02842483          	lw	s1,40(s0)
800006b4:	00f12423          	sw	a5,8(sp)
800006b8:	01012623          	sw	a6,12(sp)
800006bc:	178010ef          	jal	ra,80001834 <ioe_read>
800006c0:	00812703          	lw	a4,8(sp)
800006c4:	000f47b7          	lui	a5,0xf4
800006c8:	24078793          	addi	a5,a5,576 # f4240 <_entry_offset+0xf4240>
800006cc:	02f747b3          	div	a5,a4,a5
800006d0:	00e4a223          	sw	a4,4(s1)
800006d4:	00000513          	li	a0,0
800006d8:	01c12083          	lw	ra,28(sp)
800006dc:	00f4a023          	sw	a5,0(s1)
800006e0:	02a42423          	sw	a0,40(s0)
800006e4:	01812403          	lw	s0,24(sp)
800006e8:	01412483          	lw	s1,20(sp)
800006ec:	02010113          	addi	sp,sp,32
800006f0:	00008067          	ret
800006f4:	00000513          	li	a0,0
800006f8:	e9dff06f          	j	80000594 <do_syscall+0x4c>
800006fc:	800036b7          	lui	a3,0x80003
80000700:	800035b7          	lui	a1,0x80003
80000704:	80003537          	lui	a0,0x80003
80000708:	b6468693          	addi	a3,a3,-1180 # 80002b64 <_end+0xffde3b64>
8000070c:	08200613          	li	a2,130
80000710:	a9c58593          	addi	a1,a1,-1380 # 80002a9c <_end+0xffde3a9c>
80000714:	acc50513          	addi	a0,a0,-1332 # 80002acc <_end+0xffde3acc>
80000718:	33d010ef          	jal	ra,80002254 <printf>
8000071c:	00100513          	li	a0,1
80000720:	7fd000ef          	jal	ra,8000171c <halt>
80000724:	80003537          	lui	a0,0x80003
80000728:	a7c50513          	addi	a0,a0,-1412 # 80002a7c <_end+0xffde3a7c>
8000072c:	329010ef          	jal	ra,80002254 <printf>
80000730:	00040513          	mv	a0,s0
80000734:	e05ff0ef          	jal	ra,80000538 <sys_exit>

80000738 <do_event>:
80000738:	00052703          	lw	a4,0(a0)
8000073c:	ff010113          	addi	sp,sp,-16
80000740:	00812423          	sw	s0,8(sp)
80000744:	00112623          	sw	ra,12(sp)
80000748:	00100793          	li	a5,1
8000074c:	00058413          	mv	s0,a1
80000750:	02f70a63          	beq	a4,a5,80000784 <do_event+0x4c>
80000754:	00200793          	li	a5,2
80000758:	04f71663          	bne	a4,a5,800007a4 <do_event+0x6c>
8000075c:	80003537          	lui	a0,0x80003
80000760:	10050513          	addi	a0,a0,256 # 80003100 <_end+0xffde4100>
80000764:	2f1010ef          	jal	ra,80002254 <printf>
80000768:	00040513          	mv	a0,s0
8000076c:	dddff0ef          	jal	ra,80000548 <do_syscall>
80000770:	00c12083          	lw	ra,12(sp)
80000774:	00040513          	mv	a0,s0
80000778:	00812403          	lw	s0,8(sp)
8000077c:	01010113          	addi	sp,sp,16
80000780:	00008067          	ret
80000784:	80003537          	lui	a0,0x80003
80000788:	0ec50513          	addi	a0,a0,236 # 800030ec <_end+0xffde40ec>
8000078c:	2c9010ef          	jal	ra,80002254 <printf>
80000790:	00040513          	mv	a0,s0
80000794:	00812403          	lw	s0,8(sp)
80000798:	00c12083          	lw	ra,12(sp)
8000079c:	01010113          	addi	sp,sp,16
800007a0:	2680006f          	j	80000a08 <schedule>
800007a4:	800036b7          	lui	a3,0x80003
800007a8:	800035b7          	lui	a1,0x80003
800007ac:	80003537          	lui	a0,0x80003
800007b0:	1c868693          	addi	a3,a3,456 # 800031c8 <_end+0xffde41c8>
800007b4:	01000613          	li	a2,16
800007b8:	11458593          	addi	a1,a1,276 # 80003114 <_end+0xffde4114>
800007bc:	14050513          	addi	a0,a0,320 # 80003140 <_end+0xffde4140>
800007c0:	295010ef          	jal	ra,80002254 <printf>
800007c4:	00100513          	li	a0,1
800007c8:	755000ef          	jal	ra,8000171c <halt>

800007cc <init_irq>:
800007cc:	800036b7          	lui	a3,0x80003
800007d0:	800035b7          	lui	a1,0x80003
800007d4:	80003537          	lui	a0,0x80003
800007d8:	ff010113          	addi	sp,sp,-16
800007dc:	1d468693          	addi	a3,a3,468 # 800031d4 <_end+0xffde41d4>
800007e0:	01700613          	li	a2,23
800007e4:	11458593          	addi	a1,a1,276 # 80003114 <_end+0xffde4114>
800007e8:	18450513          	addi	a0,a0,388 # 80003184 <_end+0xffde4184>
800007ec:	00112623          	sw	ra,12(sp)
800007f0:	265010ef          	jal	ra,80002254 <printf>
800007f4:	00c12083          	lw	ra,12(sp)
800007f8:	80000537          	lui	a0,0x80000
800007fc:	73850513          	addi	a0,a0,1848 # 80000738 <_end+0xffde1738>
80000800:	01010113          	addi	sp,sp,16
80000804:	3440106f          	j	80001b48 <cte_init>

80000808 <free_page>:
80000808:	800036b7          	lui	a3,0x80003
8000080c:	800035b7          	lui	a1,0x80003
80000810:	80003537          	lui	a0,0x80003
80000814:	ff010113          	addi	sp,sp,-16
80000818:	28868693          	addi	a3,a3,648 # 80003288 <_end+0xffde4288>
8000081c:	01600613          	li	a2,22
80000820:	1e058593          	addi	a1,a1,480 # 800031e0 <_end+0xffde41e0>
80000824:	20c50513          	addi	a0,a0,524 # 8000320c <_end+0xffde420c>
80000828:	00112623          	sw	ra,12(sp)
8000082c:	229010ef          	jal	ra,80002254 <printf>
80000830:	00100513          	li	a0,1
80000834:	6e9000ef          	jal	ra,8000171c <halt>

80000838 <pg_alloc>:
80000838:	41f55793          	srai	a5,a0,0x1f
8000083c:	01479793          	slli	a5,a5,0x14
80000840:	80216737          	lui	a4,0x80216
80000844:	ff010113          	addi	sp,sp,-16
80000848:	01870713          	addi	a4,a4,24 # 80216018 <_end+0xffff7018>
8000084c:	0147d793          	srli	a5,a5,0x14
80000850:	00812423          	sw	s0,8(sp)
80000854:	00a787b3          	add	a5,a5,a0
80000858:	00072403          	lw	s0,0(a4)
8000085c:	40c7d793          	srai	a5,a5,0xc
80000860:	00c79793          	slli	a5,a5,0xc
80000864:	00112623          	sw	ra,12(sp)
80000868:	00f407b3          	add	a5,s0,a5
8000086c:	00050613          	mv	a2,a0
80000870:	00000593          	li	a1,0
80000874:	00040513          	mv	a0,s0
80000878:	00f72023          	sw	a5,0(a4)
8000087c:	519010ef          	jal	ra,80002594 <memset>
80000880:	00c12083          	lw	ra,12(sp)
80000884:	00040513          	mv	a0,s0
80000888:	00812403          	lw	s0,8(sp)
8000088c:	01010113          	addi	sp,sp,16
80000890:	00008067          	ret

80000894 <new_page>:
80000894:	802167b7          	lui	a5,0x80216
80000898:	01878793          	addi	a5,a5,24 # 80216018 <_end+0xffff7018>
8000089c:	0007a703          	lw	a4,0(a5)
800008a0:	00c51513          	slli	a0,a0,0xc
800008a4:	00a70533          	add	a0,a4,a0
800008a8:	00a7a023          	sw	a0,0(a5)
800008ac:	00070513          	mv	a0,a4
800008b0:	00008067          	ret

800008b4 <init_mm>:
800008b4:	801ec7b7          	lui	a5,0x801ec
800008b8:	75c7a703          	lw	a4,1884(a5) # 801ec75c <_end+0xfffcd75c>
800008bc:	000017b7          	lui	a5,0x1
800008c0:	fff78793          	addi	a5,a5,-1 # fff <_entry_offset+0xfff>
800008c4:	00f70733          	add	a4,a4,a5
800008c8:	800035b7          	lui	a1,0x80003
800008cc:	fffff7b7          	lui	a5,0xfffff
800008d0:	800046b7          	lui	a3,0x80004
800008d4:	80003537          	lui	a0,0x80003
800008d8:	ff010113          	addi	sp,sp,-16
800008dc:	00f77733          	and	a4,a4,a5
800008e0:	1e058593          	addi	a1,a1,480 # 800031e0 <_end+0xffde41e0>
800008e4:	802167b7          	lui	a5,0x80216
800008e8:	b8068693          	addi	a3,a3,-1152 # 80003b80 <_end+0xffde4b80>
800008ec:	02200613          	li	a2,34
800008f0:	24c50513          	addi	a0,a0,588 # 8000324c <_end+0xffde424c>
800008f4:	00112623          	sw	ra,12(sp)
800008f8:	00e7ac23          	sw	a4,24(a5) # 80216018 <_end+0xffff7018>
800008fc:	159010ef          	jal	ra,80002254 <printf>
80000900:	00c12083          	lw	ra,12(sp)
80000904:	800015b7          	lui	a1,0x80001
80000908:	80001537          	lui	a0,0x80001
8000090c:	80858593          	addi	a1,a1,-2040 # 80000808 <_end+0xffde1808>
80000910:	83850513          	addi	a0,a0,-1992 # 80000838 <_end+0xffde1838>
80000914:	01010113          	addi	sp,sp,16
80000918:	3c40106f          	j	80001cdc <vme_init>

8000091c <hello_fun>:
8000091c:	fe010113          	addi	sp,sp,-32
80000920:	00812c23          	sw	s0,24(sp)
80000924:	00912a23          	sw	s1,20(sp)
80000928:	01212823          	sw	s2,16(sp)
8000092c:	01312623          	sw	s3,12(sp)
80000930:	01412423          	sw	s4,8(sp)
80000934:	00112e23          	sw	ra,28(sp)
80000938:	00050493          	mv	s1,a0
8000093c:	00100413          	li	s0,1
80000940:	80003a37          	lui	s4,0x80003
80000944:	800039b7          	lui	s3,0x80003
80000948:	80003937          	lui	s2,0x80003
8000094c:	00040793          	mv	a5,s0
80000950:	00048713          	mv	a4,s1
80000954:	370a0693          	addi	a3,s4,880 # 80003370 <_end+0xffde4370>
80000958:	01300613          	li	a2,19
8000095c:	29498593          	addi	a1,s3,660 # 80003294 <_end+0xffde4294>
80000960:	2c090513          	addi	a0,s2,704 # 800032c0 <_end+0xffde42c0>
80000964:	0f1010ef          	jal	ra,80002254 <printf>
80000968:	00140413          	addi	s0,s0,1
8000096c:	224010ef          	jal	ra,80001b90 <yield>
80000970:	fddff06f          	j	8000094c <hello_fun+0x30>

80000974 <init_proc>:
80000974:	ff010113          	addi	sp,sp,-16
80000978:	00812423          	sw	s0,8(sp)
8000097c:	00912223          	sw	s1,4(sp)
80000980:	80216437          	lui	s0,0x80216
80000984:	8020e4b7          	lui	s1,0x8020e
80000988:	800036b7          	lui	a3,0x80003
8000098c:	800035b7          	lui	a1,0x80003
80000990:	80003537          	lui	a0,0x80003
80000994:	01c40413          	addi	s0,s0,28 # 8021601c <_end+0xffff701c>
80000998:	00048493          	mv	s1,s1
8000099c:	36468693          	addi	a3,a3,868 # 80003364 <_end+0xffde4364>
800009a0:	01f00613          	li	a2,31
800009a4:	29458593          	addi	a1,a1,660 # 80003294 <_end+0xffde4294>
800009a8:	31450513          	addi	a0,a0,788 # 80003314 <_end+0xffde4314>
800009ac:	00112623          	sw	ra,12(sp)
800009b0:	01212023          	sw	s2,0(sp)
800009b4:	00942023          	sw	s1,0(s0)
800009b8:	09d010ef          	jal	ra,80002254 <printf>
800009bc:	80001937          	lui	s2,0x80001
800009c0:	80003637          	lui	a2,0x80003
800009c4:	801ee537          	lui	a0,0x801ee
800009c8:	91c90593          	addi	a1,s2,-1764 # 8000091c <_end+0xffde191c>
800009cc:	34860613          	addi	a2,a2,840 # 80003348 <_end+0xffde4348>
800009d0:	00050513          	mv	a0,a0
800009d4:	2e8000ef          	jal	ra,80000cbc <context_kload>
800009d8:	801f6537          	lui	a0,0x801f6
800009dc:	91c90593          	addi	a1,s2,-1764
800009e0:	00000613          	li	a2,0
800009e4:	00050513          	mv	a0,a0
800009e8:	2d4000ef          	jal	ra,80000cbc <context_kload>
800009ec:	00c12083          	lw	ra,12(sp)
800009f0:	00942023          	sw	s1,0(s0)
800009f4:	00812403          	lw	s0,8(sp)
800009f8:	00412483          	lw	s1,4(sp)
800009fc:	00012903          	lw	s2,0(sp)
80000a00:	01010113          	addi	sp,sp,16
80000a04:	00008067          	ret

80000a08 <schedule>:
80000a08:	ff010113          	addi	sp,sp,-16
80000a0c:	00812423          	sw	s0,8(sp)
80000a10:	80216437          	lui	s0,0x80216
80000a14:	01c40413          	addi	s0,s0,28 # 8021601c <_end+0xffff701c>
80000a18:	00042783          	lw	a5,0(s0)
80000a1c:	00112623          	sw	ra,12(sp)
80000a20:	00a7a023          	sw	a0,0(a5)
80000a24:	80003537          	lui	a0,0x80003
80000a28:	801ee7b7          	lui	a5,0x801ee
80000a2c:	00078793          	mv	a5,a5
80000a30:	35450513          	addi	a0,a0,852 # 80003354 <_end+0xffde4354>
80000a34:	00f42023          	sw	a5,0(s0)
80000a38:	01d010ef          	jal	ra,80002254 <printf>
80000a3c:	00042783          	lw	a5,0(s0)
80000a40:	00c12083          	lw	ra,12(sp)
80000a44:	00812403          	lw	s0,8(sp)
80000a48:	0007a503          	lw	a0,0(a5) # 801ee000 <_end+0xfffcf000>
80000a4c:	01010113          	addi	sp,sp,16
80000a50:	00008067          	ret

80000a54 <execve>:
80000a54:	fe010113          	addi	sp,sp,-32
80000a58:	01212823          	sw	s2,16(sp)
80000a5c:	01312623          	sw	s3,12(sp)
80000a60:	00058913          	mv	s2,a1
80000a64:	00060993          	mv	s3,a2
80000a68:	00000593          	li	a1,0
80000a6c:	00000613          	li	a2,0
80000a70:	00912a23          	sw	s1,20(sp)
80000a74:	00112e23          	sw	ra,28(sp)
80000a78:	00812c23          	sw	s0,24(sp)
80000a7c:	00050493          	mv	s1,a0
80000a80:	73c000ef          	jal	ra,800011bc <fs_open>
80000a84:	fff00713          	li	a4,-1
80000a88:	04e50c63          	beq	a0,a4,80000ae0 <execve+0x8c>
80000a8c:	80216437          	lui	s0,0x80216
80000a90:	36d000ef          	jal	ra,800015fc <fs_close>
80000a94:	01c40413          	addi	s0,s0,28 # 8021601c <_end+0xffff701c>
80000a98:	00042503          	lw	a0,0(s0)
80000a9c:	00098693          	mv	a3,s3
80000aa0:	00090613          	mv	a2,s2
80000aa4:	00048593          	mv	a1,s1
80000aa8:	24c000ef          	jal	ra,80000cf4 <context_uload>
80000aac:	8020e7b7          	lui	a5,0x8020e
80000ab0:	00078793          	mv	a5,a5
80000ab4:	00f42023          	sw	a5,0(s0)
80000ab8:	0d8010ef          	jal	ra,80001b90 <yield>
80000abc:	00000793          	li	a5,0
80000ac0:	01c12083          	lw	ra,28(sp)
80000ac4:	01812403          	lw	s0,24(sp)
80000ac8:	01412483          	lw	s1,20(sp)
80000acc:	01012903          	lw	s2,16(sp)
80000ad0:	00c12983          	lw	s3,12(sp)
80000ad4:	00078513          	mv	a0,a5
80000ad8:	02010113          	addi	sp,sp,32
80000adc:	00008067          	ret
80000ae0:	00050793          	mv	a5,a0
80000ae4:	fddff06f          	j	80000ac0 <execve+0x6c>

80000ae8 <loader.constprop.0>:
80000ae8:	f6010113          	addi	sp,sp,-160
80000aec:	08812c23          	sw	s0,152(sp)
80000af0:	00050413          	mv	s0,a0
80000af4:	80003537          	lui	a0,0x80003
80000af8:	37c50513          	addi	a0,a0,892 # 8000337c <_end+0xffde437c>
80000afc:	08112e23          	sw	ra,156(sp)
80000b00:	08912a23          	sw	s1,148(sp)
80000b04:	09212823          	sw	s2,144(sp)
80000b08:	09312623          	sw	s3,140(sp)
80000b0c:	09412423          	sw	s4,136(sp)
80000b10:	09512223          	sw	s5,132(sp)
80000b14:	09612023          	sw	s6,128(sp)
80000b18:	07712e23          	sw	s7,124(sp)
80000b1c:	07812c23          	sw	s8,120(sp)
80000b20:	734010ef          	jal	ra,80002254 <printf>
80000b24:	00000613          	li	a2,0
80000b28:	00000593          	li	a1,0
80000b2c:	00040513          	mv	a0,s0
80000b30:	68c000ef          	jal	ra,800011bc <fs_open>
80000b34:	fff00793          	li	a5,-1
80000b38:	12f50e63          	beq	a0,a5,80000c74 <loader.constprop.0+0x18c>
80000b3c:	03400613          	li	a2,52
80000b40:	03c10593          	addi	a1,sp,60
80000b44:	00050913          	mv	s2,a0
80000b48:	0b9000ef          	jal	ra,80001400 <fs_read>
80000b4c:	800037b7          	lui	a5,0x80003
80000b50:	4f478793          	addi	a5,a5,1268 # 800034f4 <_end+0xffde44f4>
80000b54:	0007a603          	lw	a2,0(a5)
80000b58:	0047a683          	lw	a3,4(a5)
80000b5c:	0087a703          	lw	a4,8(a5)
80000b60:	03c12583          	lw	a1,60(sp)
80000b64:	00c7a783          	lw	a5,12(a5)
80000b68:	80003537          	lui	a0,0x80003
80000b6c:	3c850513          	addi	a0,a0,968 # 800033c8 <_end+0xffde43c8>
80000b70:	00c12623          	sw	a2,12(sp)
80000b74:	00d12823          	sw	a3,16(sp)
80000b78:	00e12a23          	sw	a4,20(sp)
80000b7c:	00f12c23          	sw	a5,24(sp)
80000b80:	6d4010ef          	jal	ra,80002254 <printf>
80000b84:	00c10593          	addi	a1,sp,12
80000b88:	03c10513          	addi	a0,sp,60
80000b8c:	1a5010ef          	jal	ra,80002530 <strcmp>
80000b90:	00050413          	mv	s0,a0
80000b94:	10051863          	bnez	a0,80000ca4 <loader.constprop.0+0x1bc>
80000b98:	06815983          	lhu	s3,104(sp)
80000b9c:	05412c03          	lw	s8,84(sp)
80000ba0:	05812483          	lw	s1,88(sp)
80000ba4:	80003537          	lui	a0,0x80003
80000ba8:	00098693          	mv	a3,s3
80000bac:	00048613          	mv	a2,s1
80000bb0:	000c0593          	mv	a1,s8
80000bb4:	41450513          	addi	a0,a0,1044 # 80003414 <_end+0xffde4414>
80000bb8:	69c010ef          	jal	ra,80002254 <printf>
80000bbc:	06098c63          	beqz	s3,80000c34 <loader.constprop.0+0x14c>
80000bc0:	00100a93          	li	s5,1
80000bc4:	00000613          	li	a2,0
80000bc8:	00048593          	mv	a1,s1
80000bcc:	00090513          	mv	a0,s2
80000bd0:	13d000ef          	jal	ra,8000150c <fs_lseek>
80000bd4:	02000613          	li	a2,32
80000bd8:	01c10593          	addi	a1,sp,28
80000bdc:	00090513          	mv	a0,s2
80000be0:	021000ef          	jal	ra,80001400 <fs_read>
80000be4:	01c12783          	lw	a5,28(sp)
80000be8:	05579063          	bne	a5,s5,80000c28 <loader.constprop.0+0x140>
80000bec:	02012583          	lw	a1,32(sp)
80000bf0:	02c12a03          	lw	s4,44(sp)
80000bf4:	02412b03          	lw	s6,36(sp)
80000bf8:	00000613          	li	a2,0
80000bfc:	00090513          	mv	a0,s2
80000c00:	03012b83          	lw	s7,48(sp)
80000c04:	109000ef          	jal	ra,8000150c <fs_lseek>
80000c08:	000a0613          	mv	a2,s4
80000c0c:	000b0593          	mv	a1,s6
80000c10:	00090513          	mv	a0,s2
80000c14:	7ec000ef          	jal	ra,80001400 <fs_read>
80000c18:	414b8633          	sub	a2,s7,s4
80000c1c:	00000593          	li	a1,0
80000c20:	016a0533          	add	a0,s4,s6
80000c24:	171010ef          	jal	ra,80002594 <memset>
80000c28:	00140413          	addi	s0,s0,1
80000c2c:	02048493          	addi	s1,s1,32 # 8020e020 <_end+0xfffef020>
80000c30:	f8899ae3          	bne	s3,s0,80000bc4 <loader.constprop.0+0xdc>
80000c34:	80003537          	lui	a0,0x80003
80000c38:	43050513          	addi	a0,a0,1072 # 80003430 <_end+0xffde4430>
80000c3c:	618010ef          	jal	ra,80002254 <printf>
80000c40:	09c12083          	lw	ra,156(sp)
80000c44:	09812403          	lw	s0,152(sp)
80000c48:	09412483          	lw	s1,148(sp)
80000c4c:	09012903          	lw	s2,144(sp)
80000c50:	08c12983          	lw	s3,140(sp)
80000c54:	08812a03          	lw	s4,136(sp)
80000c58:	08412a83          	lw	s5,132(sp)
80000c5c:	08012b03          	lw	s6,128(sp)
80000c60:	07c12b83          	lw	s7,124(sp)
80000c64:	000c0513          	mv	a0,s8
80000c68:	07812c03          	lw	s8,120(sp)
80000c6c:	0a010113          	addi	sp,sp,160
80000c70:	00008067          	ret
80000c74:	80003737          	lui	a4,0x80003
80000c78:	800046b7          	lui	a3,0x80004
80000c7c:	38c70713          	addi	a4,a4,908 # 8000338c <_end+0xffde438c>
80000c80:	b8868693          	addi	a3,a3,-1144 # 80003b88 <_end+0xffde4b88>
80000c84:	06200613          	li	a2,98
80000c88:	800035b7          	lui	a1,0x80003
80000c8c:	80002537          	lui	a0,0x80002
80000c90:	39858593          	addi	a1,a1,920 # 80003398 <_end+0xffde4398>
80000c94:	74850513          	addi	a0,a0,1864 # 80002748 <_end+0xffde3748>
80000c98:	5bc010ef          	jal	ra,80002254 <printf>
80000c9c:	00100513          	li	a0,1
80000ca0:	27d000ef          	jal	ra,8000171c <halt>
80000ca4:	80003737          	lui	a4,0x80003
80000ca8:	800046b7          	lui	a3,0x80004
80000cac:	3dc70713          	addi	a4,a4,988 # 800033dc <_end+0xffde43dc>
80000cb0:	b8868693          	addi	a3,a3,-1144 # 80003b88 <_end+0xffde4b88>
80000cb4:	06800613          	li	a2,104
80000cb8:	fd1ff06f          	j	80000c88 <loader.constprop.0+0x1a0>

80000cbc <context_kload>:
80000cbc:	00060693          	mv	a3,a2
80000cc0:	00058613          	mv	a2,a1
80000cc4:	000205b7          	lui	a1,0x20
80000cc8:	fe010113          	addi	sp,sp,-32
80000ccc:	00b505b3          	add	a1,a0,a1
80000cd0:	00812c23          	sw	s0,24(sp)
80000cd4:	00112e23          	sw	ra,28(sp)
80000cd8:	00050413          	mv	s0,a0
80000cdc:	689000ef          	jal	ra,80001b64 <kcontext>
80000ce0:	01c12083          	lw	ra,28(sp)
80000ce4:	00a42023          	sw	a0,0(s0)
80000ce8:	01812403          	lw	s0,24(sp)
80000cec:	02010113          	addi	sp,sp,32
80000cf0:	00008067          	ret

80000cf4 <context_uload>:
80000cf4:	f9010113          	addi	sp,sp,-112
80000cf8:	06812423          	sw	s0,104(sp)
80000cfc:	06912223          	sw	s1,100(sp)
80000d00:	07010413          	addi	s0,sp,112
80000d04:	03b12e23          	sw	s11,60(sp)
80000d08:	06112623          	sw	ra,108(sp)
80000d0c:	07212023          	sw	s2,96(sp)
80000d10:	05312e23          	sw	s3,92(sp)
80000d14:	05412c23          	sw	s4,88(sp)
80000d18:	05512a23          	sw	s5,84(sp)
80000d1c:	05612823          	sw	s6,80(sp)
80000d20:	05712623          	sw	s7,76(sp)
80000d24:	05812423          	sw	s8,72(sp)
80000d28:	05912223          	sw	s9,68(sp)
80000d2c:	05a12023          	sw	s10,64(sp)
80000d30:	00008db7          	lui	s11,0x8
80000d34:	01b50733          	add	a4,a0,s11
80000d38:	faa42223          	sw	a0,-92(s0)
80000d3c:	fae42423          	sw	a4,-88(s0)
80000d40:	faa42c23          	sw	a0,-72(s0)
80000d44:	fae42e23          	sw	a4,-68(s0)
80000d48:	fab42023          	sw	a1,-96(s0)
80000d4c:	fad42623          	sw	a3,-84(s0)
80000d50:	00060493          	mv	s1,a2
80000d54:	2c060063          	beqz	a2,80001014 <context_uload+0x320>
80000d58:	00062783          	lw	a5,0(a2)
80000d5c:	2a078c63          	beqz	a5,80001014 <context_uload+0x320>
80000d60:	00460793          	addi	a5,a2,4
80000d64:	00000a13          	li	s4,0
80000d68:	0007a703          	lw	a4,0(a5)
80000d6c:	000a0b13          	mv	s6,s4
80000d70:	001a0a13          	addi	s4,s4,1
80000d74:	00478793          	addi	a5,a5,4
80000d78:	002a1b93          	slli	s7,s4,0x2
80000d7c:	fe0716e3          	bnez	a4,80000d68 <context_uload+0x74>
80000d80:	fac42783          	lw	a5,-84(s0)
80000d84:	2a078a63          	beqz	a5,80001038 <context_uload+0x344>
80000d88:	fac42783          	lw	a5,-84(s0)
80000d8c:	0007a783          	lw	a5,0(a5)
80000d90:	34078663          	beqz	a5,800010dc <context_uload+0x3e8>
80000d94:	fac42783          	lw	a5,-84(s0)
80000d98:	00000a93          	li	s5,0
80000d9c:	00478793          	addi	a5,a5,4
80000da0:	0007a703          	lw	a4,0(a5)
80000da4:	000a8993          	mv	s3,s5
80000da8:	001a8a93          	addi	s5,s5,1
80000dac:	00478793          	addi	a5,a5,4
80000db0:	002a9c13          	slli	s8,s5,0x2
80000db4:	fe0716e3          	bnez	a4,80000da0 <context_uload+0xac>
80000db8:	80003537          	lui	a0,0x80003
80000dbc:	000a8613          	mv	a2,s5
80000dc0:	000a0593          	mv	a1,s4
80000dc4:	44050513          	addi	a0,a0,1088 # 80003440 <_end+0xffde4440>
80000dc8:	00fb8b93          	addi	s7,s7,15
80000dcc:	488010ef          	jal	ra,80002254 <printf>
80000dd0:	ff0bfb93          	andi	s7,s7,-16
80000dd4:	41710133          	sub	sp,sp,s7
80000dd8:	00800513          	li	a0,8
80000ddc:	ab9ff0ef          	jal	ra,80000894 <new_page>
80000de0:	00008737          	lui	a4,0x8
80000de4:	f7070793          	addi	a5,a4,-144 # 7f70 <_entry_offset+0x7f70>
80000de8:	00f50db3          	add	s11,a0,a5
80000dec:	00e507b3          	add	a5,a0,a4
80000df0:	f8f42e23          	sw	a5,-100(s0)
80000df4:	00010b93          	mv	s7,sp
80000df8:	340a0863          	beqz	s4,80001148 <context_uload+0x454>
80000dfc:	000b8913          	mv	s2,s7
80000e00:	00000d13          	li	s10,0
80000e04:	80003cb7          	lui	s9,0x80003
80000e08:	0004a603          	lw	a2,0(s1)
80000e0c:	000d0593          	mv	a1,s10
80000e10:	454c8513          	addi	a0,s9,1108 # 80003454 <_end+0xffde4454>
80000e14:	440010ef          	jal	ra,80002254 <printf>
80000e18:	0004a503          	lw	a0,0(s1)
80000e1c:	00448493          	addi	s1,s1,4
80000e20:	001d0d13          	addi	s10,s10,1
80000e24:	5c0010ef          	jal	ra,800023e4 <strlen>
80000e28:	fff54513          	not	a0,a0
80000e2c:	ffc4a583          	lw	a1,-4(s1)
80000e30:	00ad8db3          	add	s11,s11,a0
80000e34:	000d8513          	mv	a0,s11
80000e38:	5dc010ef          	jal	ra,80002414 <strcpy>
80000e3c:	01b92023          	sw	s11,0(s2)
80000e40:	00490913          	addi	s2,s2,4
80000e44:	fd4d42e3          	blt	s10,s4,80000e08 <context_uload+0x114>
80000e48:	00fc0c13          	addi	s8,s8,15
80000e4c:	ff0c7c13          	andi	s8,s8,-16
80000e50:	41810133          	sub	sp,sp,s8
80000e54:	00010d13          	mv	s10,sp
80000e58:	040a8a63          	beqz	s5,80000eac <context_uload+0x1b8>
80000e5c:	fac42903          	lw	s2,-84(s0)
80000e60:	000d0c13          	mv	s8,s10
80000e64:	00000c93          	li	s9,0
80000e68:	800034b7          	lui	s1,0x80003
80000e6c:	00092603          	lw	a2,0(s2)
80000e70:	000c8593          	mv	a1,s9
80000e74:	46448513          	addi	a0,s1,1124 # 80003464 <_end+0xffde4464>
80000e78:	3dc010ef          	jal	ra,80002254 <printf>
80000e7c:	00092503          	lw	a0,0(s2)
80000e80:	00490913          	addi	s2,s2,4
80000e84:	001c8c93          	addi	s9,s9,1
80000e88:	55c010ef          	jal	ra,800023e4 <strlen>
80000e8c:	fff54513          	not	a0,a0
80000e90:	ffc92583          	lw	a1,-4(s2)
80000e94:	00ad8db3          	add	s11,s11,a0
80000e98:	000d8513          	mv	a0,s11
80000e9c:	578010ef          	jal	ra,80002414 <strcpy>
80000ea0:	01bc2023          	sw	s11,0(s8)
80000ea4:	004c0c13          	addi	s8,s8,4
80000ea8:	fd5c92e3          	bne	s9,s5,80000e6c <context_uload+0x178>
80000eac:	80003537          	lui	a0,0x80003
80000eb0:	fe0dae23          	sw	zero,-4(s11) # 7ffc <_entry_offset+0x7ffc>
80000eb4:	47450513          	addi	a0,a0,1140 # 80003474 <_end+0xffde4474>
80000eb8:	39c010ef          	jal	ra,80002254 <printf>
80000ebc:	fff00713          	li	a4,-1
80000ec0:	ffcd8493          	addi	s1,s11,-4
80000ec4:	04e98863          	beq	s3,a4,80000f14 <context_uload+0x220>
80000ec8:	00299793          	slli	a5,s3,0x2
80000ecc:	00098c93          	mv	s9,s3
80000ed0:	00fd0c33          	add	s8,s10,a5
80000ed4:	00048d93          	mv	s11,s1
80000ed8:	80003ab7          	lui	s5,0x80003
80000edc:	fff00913          	li	s2,-1
80000ee0:	000c2d03          	lw	s10,0(s8)
80000ee4:	00098593          	mv	a1,s3
80000ee8:	480a8513          	addi	a0,s5,1152 # 80003480 <_end+0xffde4480>
80000eec:	000d0613          	mv	a2,s10
80000ef0:	ffcd8d93          	addi	s11,s11,-4
80000ef4:	360010ef          	jal	ra,80002254 <printf>
80000ef8:	fff98993          	addi	s3,s3,-1
80000efc:	01ada023          	sw	s10,0(s11)
80000f00:	ffcc0c13          	addi	s8,s8,-4
80000f04:	fd299ee3          	bne	s3,s2,80000ee0 <context_uload+0x1ec>
80000f08:	fffccc93          	not	s9,s9
80000f0c:	002c9c93          	slli	s9,s9,0x2
80000f10:	019484b3          	add	s1,s1,s9
80000f14:	fe04ae23          	sw	zero,-4(s1)
80000f18:	fff00793          	li	a5,-1
80000f1c:	ffc48493          	addi	s1,s1,-4
80000f20:	04fb0063          	beq	s6,a5,80000f60 <context_uload+0x26c>
80000f24:	002b1913          	slli	s2,s6,0x2
80000f28:	012b8933          	add	s2,s7,s2
80000f2c:	00048993          	mv	s3,s1
80000f30:	80003ab7          	lui	s5,0x80003
80000f34:	00092583          	lw	a1,0(s2)
80000f38:	490a8513          	addi	a0,s5,1168 # 80003490 <_end+0xffde4490>
80000f3c:	ffc98993          	addi	s3,s3,-4
80000f40:	00b9a023          	sw	a1,0(s3)
80000f44:	310010ef          	jal	ra,80002254 <printf>
80000f48:	00090793          	mv	a5,s2
80000f4c:	ffc90913          	addi	s2,s2,-4
80000f50:	fefb92e3          	bne	s7,a5,80000f34 <context_uload+0x240>
80000f54:	fffb4b13          	not	s6,s6
80000f58:	002b1b13          	slli	s6,s6,0x2
80000f5c:	016484b3          	add	s1,s1,s6
80000f60:	80003537          	lui	a0,0x80003
80000f64:	ff44ae23          	sw	s4,-4(s1)
80000f68:	49c50513          	addi	a0,a0,1180 # 8000349c <_end+0xffde449c>
80000f6c:	2e8010ef          	jal	ra,80002254 <printf>
80000f70:	fa042503          	lw	a0,-96(s0)
80000f74:	ffc48493          	addi	s1,s1,-4
80000f78:	b71ff0ef          	jal	ra,80000ae8 <loader.constprop.0>
80000f7c:	fbc42603          	lw	a2,-68(s0)
80000f80:	fb842583          	lw	a1,-72(s0)
80000f84:	00050693          	mv	a3,a0
80000f88:	00000513          	li	a0,0
80000f8c:	6ad000ef          	jal	ra,80001e38 <ucontext>
80000f90:	fa442783          	lw	a5,-92(s0)
80000f94:	00048593          	mv	a1,s1
80000f98:	00a7a023          	sw	a0,0(a5)
80000f9c:	02952623          	sw	s1,44(a0)
80000fa0:	02a52423          	sw	a0,40(a0)
80000fa4:	00a52423          	sw	a0,8(a0)
80000fa8:	80003537          	lui	a0,0x80003
80000fac:	4ac50513          	addi	a0,a0,1196 # 800034ac <_end+0xffde44ac>
80000fb0:	2a4010ef          	jal	ra,80002254 <printf>
80000fb4:	fa842583          	lw	a1,-88(s0)
80000fb8:	80003537          	lui	a0,0x80003
80000fbc:	4c050513          	addi	a0,a0,1216 # 800034c0 <_end+0xffde44c0>
80000fc0:	294010ef          	jal	ra,80002254 <printf>
80000fc4:	f9c42583          	lw	a1,-100(s0)
80000fc8:	80003537          	lui	a0,0x80003
80000fcc:	4dc50513          	addi	a0,a0,1244 # 800034dc <_end+0xffde44dc>
80000fd0:	284010ef          	jal	ra,80002254 <printf>
80000fd4:	f9040113          	addi	sp,s0,-112
80000fd8:	06c12083          	lw	ra,108(sp)
80000fdc:	06812403          	lw	s0,104(sp)
80000fe0:	06412483          	lw	s1,100(sp)
80000fe4:	06012903          	lw	s2,96(sp)
80000fe8:	05c12983          	lw	s3,92(sp)
80000fec:	05812a03          	lw	s4,88(sp)
80000ff0:	05412a83          	lw	s5,84(sp)
80000ff4:	05012b03          	lw	s6,80(sp)
80000ff8:	04c12b83          	lw	s7,76(sp)
80000ffc:	04812c03          	lw	s8,72(sp)
80001000:	04412c83          	lw	s9,68(sp)
80001004:	04012d03          	lw	s10,64(sp)
80001008:	03c12d83          	lw	s11,60(sp)
8000100c:	07010113          	addi	sp,sp,112
80001010:	00008067          	ret
80001014:	fac42783          	lw	a5,-84(s0)
80001018:	06078863          	beqz	a5,80001088 <context_uload+0x394>
8000101c:	fac42783          	lw	a5,-84(s0)
80001020:	0007a783          	lw	a5,0(a5)
80001024:	0c078e63          	beqz	a5,80001100 <context_uload+0x40c>
80001028:	00000b93          	li	s7,0
8000102c:	fff00b13          	li	s6,-1
80001030:	00000a13          	li	s4,0
80001034:	d61ff06f          	j	80000d94 <context_uload+0xa0>
80001038:	80003537          	lui	a0,0x80003
8000103c:	00fb8b93          	addi	s7,s7,15
80001040:	00000613          	li	a2,0
80001044:	000a0593          	mv	a1,s4
80001048:	44050513          	addi	a0,a0,1088 # 80003440 <_end+0xffde4440>
8000104c:	ff0bfb93          	andi	s7,s7,-16
80001050:	204010ef          	jal	ra,80002254 <printf>
80001054:	41710133          	sub	sp,sp,s7
80001058:	00800513          	li	a0,8
8000105c:	839ff0ef          	jal	ra,80000894 <new_page>
80001060:	00008737          	lui	a4,0x8
80001064:	f7070793          	addi	a5,a4,-144 # 7f70 <_entry_offset+0x7f70>
80001068:	00f50db3          	add	s11,a0,a5
8000106c:	00e507b3          	add	a5,a0,a4
80001070:	00010b93          	mv	s7,sp
80001074:	f8f42e23          	sw	a5,-100(s0)
80001078:	00000c13          	li	s8,0
8000107c:	fff00993          	li	s3,-1
80001080:	00000a93          	li	s5,0
80001084:	d79ff06f          	j	80000dfc <context_uload+0x108>
80001088:	80003537          	lui	a0,0x80003
8000108c:	00000613          	li	a2,0
80001090:	00000593          	li	a1,0
80001094:	44050513          	addi	a0,a0,1088 # 80003440 <_end+0xffde4440>
80001098:	1bc010ef          	jal	ra,80002254 <printf>
8000109c:	00800513          	li	a0,8
800010a0:	ff4ff0ef          	jal	ra,80000894 <new_page>
800010a4:	000087b7          	lui	a5,0x8
800010a8:	00f50733          	add	a4,a0,a5
800010ac:	00050493          	mv	s1,a0
800010b0:	80003537          	lui	a0,0x80003
800010b4:	f6c78793          	addi	a5,a5,-148 # 7f6c <_entry_offset+0x7f6c>
800010b8:	f6072623          	sw	zero,-148(a4)
800010bc:	47450513          	addi	a0,a0,1140 # 80003474 <_end+0xffde4474>
800010c0:	f8e42e23          	sw	a4,-100(s0)
800010c4:	00f484b3          	add	s1,s1,a5
800010c8:	fb440b93          	addi	s7,s0,-76
800010cc:	188010ef          	jal	ra,80002254 <printf>
800010d0:	00000a13          	li	s4,0
800010d4:	fff00b13          	li	s6,-1
800010d8:	e3dff06f          	j	80000f14 <context_uload+0x220>
800010dc:	80003537          	lui	a0,0x80003
800010e0:	00000613          	li	a2,0
800010e4:	000a0593          	mv	a1,s4
800010e8:	44050513          	addi	a0,a0,1088 # 80003440 <_end+0xffde4440>
800010ec:	168010ef          	jal	ra,80002254 <printf>
800010f0:	00fb8793          	addi	a5,s7,15
800010f4:	ff07f793          	andi	a5,a5,-16
800010f8:	40f10133          	sub	sp,sp,a5
800010fc:	f5dff06f          	j	80001058 <context_uload+0x364>
80001100:	80003537          	lui	a0,0x80003
80001104:	00000613          	li	a2,0
80001108:	00000593          	li	a1,0
8000110c:	44050513          	addi	a0,a0,1088 # 80003440 <_end+0xffde4440>
80001110:	144010ef          	jal	ra,80002254 <printf>
80001114:	00800513          	li	a0,8
80001118:	f7cff0ef          	jal	ra,80000894 <new_page>
8000111c:	000086b7          	lui	a3,0x8
80001120:	f7068793          	addi	a5,a3,-144 # 7f70 <_entry_offset+0x7f70>
80001124:	00f50db3          	add	s11,a0,a5
80001128:	00d507b3          	add	a5,a0,a3
8000112c:	00010b93          	mv	s7,sp
80001130:	f8f42e23          	sw	a5,-100(s0)
80001134:	00010d13          	mv	s10,sp
80001138:	fff00993          	li	s3,-1
8000113c:	00000a13          	li	s4,0
80001140:	fff00b13          	li	s6,-1
80001144:	d69ff06f          	j	80000eac <context_uload+0x1b8>
80001148:	00fc0713          	addi	a4,s8,15
8000114c:	ff077713          	andi	a4,a4,-16
80001150:	40e10133          	sub	sp,sp,a4
80001154:	00010d13          	mv	s10,sp
80001158:	d05ff06f          	j	80000e5c <context_uload+0x168>

8000115c <invalid_read>:
8000115c:	800046b7          	lui	a3,0x80004
80001160:	800035b7          	lui	a1,0x80003
80001164:	80003537          	lui	a0,0x80003
80001168:	ff010113          	addi	sp,sp,-16
8000116c:	9c468693          	addi	a3,a3,-1596 # 800039c4 <_end+0xffde49c4>
80001170:	01900613          	li	a2,25
80001174:	50458593          	addi	a1,a1,1284 # 80003504 <_end+0xffde4504>
80001178:	53050513          	addi	a0,a0,1328 # 80003530 <_end+0xffde4530>
8000117c:	00112623          	sw	ra,12(sp)
80001180:	0d4010ef          	jal	ra,80002254 <printf>
80001184:	00100513          	li	a0,1
80001188:	594000ef          	jal	ra,8000171c <halt>

8000118c <invalid_write>:
8000118c:	800046b7          	lui	a3,0x80004
80001190:	800035b7          	lui	a1,0x80003
80001194:	80003537          	lui	a0,0x80003
80001198:	ff010113          	addi	sp,sp,-16
8000119c:	9b468693          	addi	a3,a3,-1612 # 800039b4 <_end+0xffde49b4>
800011a0:	01e00613          	li	a2,30
800011a4:	50458593          	addi	a1,a1,1284 # 80003504 <_end+0xffde4504>
800011a8:	53050513          	addi	a0,a0,1328 # 80003530 <_end+0xffde4530>
800011ac:	00112623          	sw	ra,12(sp)
800011b0:	0a4010ef          	jal	ra,80002254 <printf>
800011b4:	00100513          	li	a0,1
800011b8:	564000ef          	jal	ra,8000171c <halt>

800011bc <fs_open>:
800011bc:	fe010113          	addi	sp,sp,-32
800011c0:	00812c23          	sw	s0,24(sp)
800011c4:	801ec437          	lui	s0,0x801ec
800011c8:	00912a23          	sw	s1,20(sp)
800011cc:	01212823          	sw	s2,16(sp)
800011d0:	01312623          	sw	s3,12(sp)
800011d4:	01412423          	sw	s4,8(sp)
800011d8:	00112e23          	sw	ra,28(sp)
800011dc:	39c40a13          	addi	s4,s0,924 # 801ec39c <_end+0xfffcd39c>
800011e0:	00050913          	mv	s2,a0
800011e4:	39c40413          	addi	s0,s0,924
800011e8:	00000493          	li	s1,0
800011ec:	02800993          	li	s3,40
800011f0:	00c0006f          	j	800011fc <fs_open+0x40>
800011f4:	00148493          	addi	s1,s1,1
800011f8:	05348863          	beq	s1,s3,80001248 <fs_open+0x8c>
800011fc:	00042503          	lw	a0,0(s0)
80001200:	00090593          	mv	a1,s2
80001204:	01840413          	addi	s0,s0,24
80001208:	328010ef          	jal	ra,80002530 <strcmp>
8000120c:	fe0514e3          	bnez	a0,800011f4 <fs_open+0x38>
80001210:	00149793          	slli	a5,s1,0x1
80001214:	009787b3          	add	a5,a5,s1
80001218:	01c12083          	lw	ra,28(sp)
8000121c:	01812403          	lw	s0,24(sp)
80001220:	00379793          	slli	a5,a5,0x3
80001224:	00fa0a33          	add	s4,s4,a5
80001228:	000a2a23          	sw	zero,20(s4)
8000122c:	01012903          	lw	s2,16(sp)
80001230:	00c12983          	lw	s3,12(sp)
80001234:	00812a03          	lw	s4,8(sp)
80001238:	00048513          	mv	a0,s1
8000123c:	01412483          	lw	s1,20(sp)
80001240:	02010113          	addi	sp,sp,32
80001244:	00008067          	ret
80001248:	01c12083          	lw	ra,28(sp)
8000124c:	01812403          	lw	s0,24(sp)
80001250:	01412483          	lw	s1,20(sp)
80001254:	01012903          	lw	s2,16(sp)
80001258:	00c12983          	lw	s3,12(sp)
8000125c:	00812a03          	lw	s4,8(sp)
80001260:	fff00513          	li	a0,-1
80001264:	02010113          	addi	sp,sp,32
80001268:	00008067          	ret

8000126c <fs_write>:
8000126c:	ff010113          	addi	sp,sp,-16
80001270:	00112623          	sw	ra,12(sp)
80001274:	00812423          	sw	s0,8(sp)
80001278:	00912223          	sw	s1,4(sp)
8000127c:	00050793          	mv	a5,a0
80001280:	12050463          	beqz	a0,800013a8 <fs_write+0x13c>
80001284:	00058513          	mv	a0,a1
80001288:	fff78713          	addi	a4,a5,-1
8000128c:	00300593          	li	a1,3
80001290:	08e5fe63          	bgeu	a1,a4,8000132c <fs_write+0xc0>
80001294:	00500713          	li	a4,5
80001298:	0ee78663          	beq	a5,a4,80001384 <fs_write+0x118>
8000129c:	00060693          	mv	a3,a2
800012a0:	ffa78713          	addi	a4,a5,-6
800012a4:	02100613          	li	a2,33
800012a8:	0ae66c63          	bltu	a2,a4,80001360 <fs_write+0xf4>
800012ac:	00179713          	slli	a4,a5,0x1
800012b0:	00f70633          	add	a2,a4,a5
800012b4:	801ec437          	lui	s0,0x801ec
800012b8:	39c40413          	addi	s0,s0,924 # 801ec39c <_end+0xfffcd39c>
800012bc:	00361613          	slli	a2,a2,0x3
800012c0:	00c40633          	add	a2,s0,a2
800012c4:	01462583          	lw	a1,20(a2)
800012c8:	00462603          	lw	a2,4(a2)
800012cc:	40b60633          	sub	a2,a2,a1
800012d0:	0ac6e663          	bltu	a3,a2,8000137c <fs_write+0x110>
800012d4:	00f70733          	add	a4,a4,a5
800012d8:	00371713          	slli	a4,a4,0x3
800012dc:	00e40433          	add	s0,s0,a4
800012e0:	00842783          	lw	a5,8(s0)
800012e4:	00f585b3          	add	a1,a1,a5
800012e8:	e61fe0ef          	jal	ra,80000148 <ramdisk_write>
800012ec:	01442783          	lw	a5,20(s0)
800012f0:	00442703          	lw	a4,4(s0)
800012f4:	00050493          	mv	s1,a0
800012f8:	00f507b3          	add	a5,a0,a5
800012fc:	00f42a23          	sw	a5,20(s0)
80001300:	0cf76863          	bltu	a4,a5,800013d0 <fs_write+0x164>
80001304:	00050593          	mv	a1,a0
80001308:	80003537          	lui	a0,0x80003
8000130c:	5f050513          	addi	a0,a0,1520 # 800035f0 <_end+0xffde45f0>
80001310:	745000ef          	jal	ra,80002254 <printf>
80001314:	00c12083          	lw	ra,12(sp)
80001318:	00812403          	lw	s0,8(sp)
8000131c:	00048513          	mv	a0,s1
80001320:	00412483          	lw	s1,4(sp)
80001324:	01010113          	addi	sp,sp,16
80001328:	00008067          	ret
8000132c:	00179713          	slli	a4,a5,0x1
80001330:	00f70733          	add	a4,a4,a5
80001334:	801ec7b7          	lui	a5,0x801ec
80001338:	00371713          	slli	a4,a4,0x3
8000133c:	39c78793          	addi	a5,a5,924 # 801ec39c <_end+0xfffcd39c>
80001340:	00812403          	lw	s0,8(sp)
80001344:	00e787b3          	add	a5,a5,a4
80001348:	00c12083          	lw	ra,12(sp)
8000134c:	00412483          	lw	s1,4(sp)
80001350:	0107a783          	lw	a5,16(a5)
80001354:	00000593          	li	a1,0
80001358:	01010113          	addi	sp,sp,16
8000135c:	00078067          	jr	a5
80001360:	00c12083          	lw	ra,12(sp)
80001364:	00812403          	lw	s0,8(sp)
80001368:	fff00493          	li	s1,-1
8000136c:	00048513          	mv	a0,s1
80001370:	00412483          	lw	s1,4(sp)
80001374:	01010113          	addi	sp,sp,16
80001378:	00008067          	ret
8000137c:	00068613          	mv	a2,a3
80001380:	f55ff06f          	j	800012d4 <fs_write+0x68>
80001384:	801ec7b7          	lui	a5,0x801ec
80001388:	00812403          	lw	s0,8(sp)
8000138c:	39c78793          	addi	a5,a5,924 # 801ec39c <_end+0xfffcd39c>
80001390:	00c12083          	lw	ra,12(sp)
80001394:	00412483          	lw	s1,4(sp)
80001398:	0887a703          	lw	a4,136(a5)
8000139c:	08c7a583          	lw	a1,140(a5)
800013a0:	01010113          	addi	sp,sp,16
800013a4:	00070067          	jr	a4
800013a8:	800046b7          	lui	a3,0x80004
800013ac:	800035b7          	lui	a1,0x80003
800013b0:	80003537          	lui	a0,0x80003
800013b4:	9a868693          	addi	a3,a3,-1624 # 800039a8 <_end+0xffde49a8>
800013b8:	08b00613          	li	a2,139
800013bc:	50458593          	addi	a1,a1,1284 # 80003504 <_end+0xffde4504>
800013c0:	57450513          	addi	a0,a0,1396 # 80003574 <_end+0xffde4574>
800013c4:	691000ef          	jal	ra,80002254 <printf>
800013c8:	00100513          	li	a0,1
800013cc:	350000ef          	jal	ra,8000171c <halt>
800013d0:	80003737          	lui	a4,0x80003
800013d4:	800046b7          	lui	a3,0x80004
800013d8:	800035b7          	lui	a1,0x80003
800013dc:	80002537          	lui	a0,0x80002
800013e0:	5bc70713          	addi	a4,a4,1468 # 800035bc <_end+0xffde45bc>
800013e4:	9a868693          	addi	a3,a3,-1624 # 800039a8 <_end+0xffde49a8>
800013e8:	09c00613          	li	a2,156
800013ec:	50458593          	addi	a1,a1,1284 # 80003504 <_end+0xffde4504>
800013f0:	74850513          	addi	a0,a0,1864 # 80002748 <_end+0xffde3748>
800013f4:	661000ef          	jal	ra,80002254 <printf>
800013f8:	00100513          	li	a0,1
800013fc:	320000ef          	jal	ra,8000171c <halt>

80001400 <fs_read>:
80001400:	ff010113          	addi	sp,sp,-16
80001404:	00112623          	sw	ra,12(sp)
80001408:	00812423          	sw	s0,8(sp)
8000140c:	fff50693          	addi	a3,a0,-1
80001410:	02600813          	li	a6,38
80001414:	0ad86863          	bltu	a6,a3,800014c4 <fs_read+0xc4>
80001418:	00050793          	mv	a5,a0
8000141c:	00058513          	mv	a0,a1
80001420:	00300593          	li	a1,3
80001424:	02d5ea63          	bltu	a1,a3,80001458 <fs_read+0x58>
80001428:	00179713          	slli	a4,a5,0x1
8000142c:	00f70733          	add	a4,a4,a5
80001430:	801ec7b7          	lui	a5,0x801ec
80001434:	00371713          	slli	a4,a4,0x3
80001438:	39c78793          	addi	a5,a5,924 # 801ec39c <_end+0xfffcd39c>
8000143c:	00812403          	lw	s0,8(sp)
80001440:	00e787b3          	add	a5,a5,a4
80001444:	00c12083          	lw	ra,12(sp)
80001448:	00c7a783          	lw	a5,12(a5)
8000144c:	00000593          	li	a1,0
80001450:	01010113          	addi	sp,sp,16
80001454:	00078067          	jr	a5
80001458:	00179693          	slli	a3,a5,0x1
8000145c:	00060713          	mv	a4,a2
80001460:	801ec437          	lui	s0,0x801ec
80001464:	00f68633          	add	a2,a3,a5
80001468:	39c40413          	addi	s0,s0,924 # 801ec39c <_end+0xfffcd39c>
8000146c:	00361613          	slli	a2,a2,0x3
80001470:	00c40633          	add	a2,s0,a2
80001474:	01462583          	lw	a1,20(a2)
80001478:	00462603          	lw	a2,4(a2)
8000147c:	40b60633          	sub	a2,a2,a1
80001480:	00c77463          	bgeu	a4,a2,80001488 <fs_read+0x88>
80001484:	00070613          	mv	a2,a4
80001488:	00f686b3          	add	a3,a3,a5
8000148c:	00369693          	slli	a3,a3,0x3
80001490:	00d40433          	add	s0,s0,a3
80001494:	00842783          	lw	a5,8(s0)
80001498:	00f585b3          	add	a1,a1,a5
8000149c:	c35fe0ef          	jal	ra,800000d0 <ramdisk_read>
800014a0:	01442783          	lw	a5,20(s0)
800014a4:	00442703          	lw	a4,4(s0)
800014a8:	00f507b3          	add	a5,a0,a5
800014ac:	00f42a23          	sw	a5,20(s0)
800014b0:	04f76263          	bltu	a4,a5,800014f4 <fs_read+0xf4>
800014b4:	00c12083          	lw	ra,12(sp)
800014b8:	00812403          	lw	s0,8(sp)
800014bc:	01010113          	addi	sp,sp,16
800014c0:	00008067          	ret
800014c4:	80003737          	lui	a4,0x80003
800014c8:	800046b7          	lui	a3,0x80004
800014cc:	60070713          	addi	a4,a4,1536 # 80003600 <_end+0xffde4600>
800014d0:	b9068693          	addi	a3,a3,-1136 # 80003b90 <_end+0xffde4b90>
800014d4:	0a700613          	li	a2,167
800014d8:	800035b7          	lui	a1,0x80003
800014dc:	80002537          	lui	a0,0x80002
800014e0:	50458593          	addi	a1,a1,1284 # 80003504 <_end+0xffde4504>
800014e4:	74850513          	addi	a0,a0,1864 # 80002748 <_end+0xffde3748>
800014e8:	56d000ef          	jal	ra,80002254 <printf>
800014ec:	00100513          	li	a0,1
800014f0:	22c000ef          	jal	ra,8000171c <halt>
800014f4:	80003737          	lui	a4,0x80003
800014f8:	800046b7          	lui	a3,0x80004
800014fc:	5bc70713          	addi	a4,a4,1468 # 800035bc <_end+0xffde45bc>
80001500:	b9068693          	addi	a3,a3,-1136 # 80003b90 <_end+0xffde4b90>
80001504:	0b500613          	li	a2,181
80001508:	fd1ff06f          	j	800014d8 <fs_read+0xd8>

8000150c <fs_lseek>:
8000150c:	ffc50693          	addi	a3,a0,-4
80001510:	02300713          	li	a4,35
80001514:	0ad76863          	bltu	a4,a3,800015c4 <fs_lseek+0xb8>
80001518:	00100713          	li	a4,1
8000151c:	00050793          	mv	a5,a0
80001520:	06e60863          	beq	a2,a4,80001590 <fs_lseek+0x84>
80001524:	00200713          	li	a4,2
80001528:	02e60a63          	beq	a2,a4,8000155c <fs_lseek+0x50>
8000152c:	00060663          	beqz	a2,80001538 <fs_lseek+0x2c>
80001530:	fff00513          	li	a0,-1
80001534:	00008067          	ret
80001538:	00179693          	slli	a3,a5,0x1
8000153c:	00f686b3          	add	a3,a3,a5
80001540:	801ec737          	lui	a4,0x801ec
80001544:	00369693          	slli	a3,a3,0x3
80001548:	39c70713          	addi	a4,a4,924 # 801ec39c <_end+0xfffcd39c>
8000154c:	00058513          	mv	a0,a1
80001550:	00d70733          	add	a4,a4,a3
80001554:	00a72a23          	sw	a0,20(a4)
80001558:	00008067          	ret
8000155c:	00151693          	slli	a3,a0,0x1
80001560:	00a68633          	add	a2,a3,a0
80001564:	801ec737          	lui	a4,0x801ec
80001568:	39c70713          	addi	a4,a4,924 # 801ec39c <_end+0xfffcd39c>
8000156c:	00361613          	slli	a2,a2,0x3
80001570:	00c70633          	add	a2,a4,a2
80001574:	00462603          	lw	a2,4(a2)
80001578:	00f686b3          	add	a3,a3,a5
8000157c:	00369693          	slli	a3,a3,0x3
80001580:	00c58533          	add	a0,a1,a2
80001584:	00d70733          	add	a4,a4,a3
80001588:	00a72a23          	sw	a0,20(a4)
8000158c:	00008067          	ret
80001590:	00151693          	slli	a3,a0,0x1
80001594:	00a68633          	add	a2,a3,a0
80001598:	801ec737          	lui	a4,0x801ec
8000159c:	39c70713          	addi	a4,a4,924 # 801ec39c <_end+0xfffcd39c>
800015a0:	00361613          	slli	a2,a2,0x3
800015a4:	00c70633          	add	a2,a4,a2
800015a8:	01462603          	lw	a2,20(a2)
800015ac:	00f686b3          	add	a3,a3,a5
800015b0:	00369693          	slli	a3,a3,0x3
800015b4:	00c58533          	add	a0,a1,a2
800015b8:	00d70733          	add	a4,a4,a3
800015bc:	00a72a23          	sw	a0,20(a4)
800015c0:	00008067          	ret
800015c4:	80003737          	lui	a4,0x80003
800015c8:	800046b7          	lui	a3,0x80004
800015cc:	800035b7          	lui	a1,0x80003
800015d0:	80002537          	lui	a0,0x80002
800015d4:	ff010113          	addi	sp,sp,-16
800015d8:	61870713          	addi	a4,a4,1560 # 80003618 <_end+0xffde4618>
800015dc:	99c68693          	addi	a3,a3,-1636 # 8000399c <_end+0xffde499c>
800015e0:	0c000613          	li	a2,192
800015e4:	50458593          	addi	a1,a1,1284 # 80003504 <_end+0xffde4504>
800015e8:	74850513          	addi	a0,a0,1864 # 80002748 <_end+0xffde3748>
800015ec:	00112623          	sw	ra,12(sp)
800015f0:	465000ef          	jal	ra,80002254 <printf>
800015f4:	00100513          	li	a0,1
800015f8:	124000ef          	jal	ra,8000171c <halt>

800015fc <fs_close>:
800015fc:	ffd50713          	addi	a4,a0,-3
80001600:	02400793          	li	a5,36
80001604:	02e7e463          	bltu	a5,a4,8000162c <fs_close+0x30>
80001608:	00151713          	slli	a4,a0,0x1
8000160c:	00a70733          	add	a4,a4,a0
80001610:	801ec7b7          	lui	a5,0x801ec
80001614:	00371713          	slli	a4,a4,0x3
80001618:	39c78793          	addi	a5,a5,924 # 801ec39c <_end+0xfffcd39c>
8000161c:	00e787b3          	add	a5,a5,a4
80001620:	0007aa23          	sw	zero,20(a5)
80001624:	00000513          	li	a0,0
80001628:	00008067          	ret
8000162c:	fff00513          	li	a0,-1
80001630:	00008067          	ret

80001634 <init_fs>:
80001634:	fd010113          	addi	sp,sp,-48
80001638:	02812423          	sw	s0,40(sp)
8000163c:	00010593          	mv	a1,sp
80001640:	801ec437          	lui	s0,0x801ec
80001644:	00900513          	li	a0,9
80001648:	02912223          	sw	s1,36(sp)
8000164c:	03212023          	sw	s2,32(sp)
80001650:	01312e23          	sw	s3,28(sp)
80001654:	01412c23          	sw	s4,24(sp)
80001658:	01512a23          	sw	s5,20(sp)
8000165c:	01612823          	sw	s6,16(sp)
80001660:	02112623          	sw	ra,44(sp)
80001664:	39c40a13          	addi	s4,s0,924 # 801ec39c <_end+0xfffcd39c>
80001668:	1cc000ef          	jal	ra,80001834 <ioe_read>
8000166c:	39c40413          	addi	s0,s0,924
80001670:	00412a83          	lw	s5,4(sp)
80001674:	00812b03          	lw	s6,8(sp)
80001678:	00000493          	li	s1,0
8000167c:	80003937          	lui	s2,0x80003
80001680:	02800993          	li	s3,40
80001684:	00c0006f          	j	80001690 <init_fs+0x5c>
80001688:	00148493          	addi	s1,s1,1
8000168c:	07348e63          	beq	s1,s3,80001708 <init_fs+0xd4>
80001690:	00042503          	lw	a0,0(s0)
80001694:	63090593          	addi	a1,s2,1584 # 80003630 <_end+0xffde4630>
80001698:	01840413          	addi	s0,s0,24
8000169c:	695000ef          	jal	ra,80002530 <strcmp>
800016a0:	fe0514e3          	bnez	a0,80001688 <init_fs+0x54>
800016a4:	00149793          	slli	a5,s1,0x1
800016a8:	009787b3          	add	a5,a5,s1
800016ac:	00379793          	slli	a5,a5,0x3
800016b0:	00fa07b3          	add	a5,s4,a5
800016b4:	0007aa23          	sw	zero,20(a5)
800016b8:	036a8ab3          	mul	s5,s5,s6
800016bc:	00149793          	slli	a5,s1,0x1
800016c0:	009787b3          	add	a5,a5,s1
800016c4:	00379793          	slli	a5,a5,0x3
800016c8:	00fa0a33          	add	s4,s4,a5
800016cc:	80003537          	lui	a0,0x80003
800016d0:	02800593          	li	a1,40
800016d4:	63850513          	addi	a0,a0,1592 # 80003638 <_end+0xffde4638>
800016d8:	015a2223          	sw	s5,4(s4)
800016dc:	379000ef          	jal	ra,80002254 <printf>
800016e0:	02c12083          	lw	ra,44(sp)
800016e4:	02812403          	lw	s0,40(sp)
800016e8:	02412483          	lw	s1,36(sp)
800016ec:	02012903          	lw	s2,32(sp)
800016f0:	01c12983          	lw	s3,28(sp)
800016f4:	01812a03          	lw	s4,24(sp)
800016f8:	01412a83          	lw	s5,20(sp)
800016fc:	01012b03          	lw	s6,16(sp)
80001700:	03010113          	addi	sp,sp,48
80001704:	00008067          	ret
80001708:	fff00493          	li	s1,-1
8000170c:	fadff06f          	j	800016b8 <init_fs+0x84>

80001710 <putch>:
80001710:	a00007b7          	lui	a5,0xa0000
80001714:	3ea78c23          	sb	a0,1016(a5) # a00003f8 <_end+0x1fde13f8>
80001718:	00008067          	ret

8000171c <halt>:
8000171c:	00050513          	mv	a0,a0
80001720:	00100073          	ebreak
80001724:	0000006f          	j	80001724 <halt+0x8>

80001728 <_trm_init>:
80001728:	80004537          	lui	a0,0x80004
8000172c:	ff010113          	addi	sp,sp,-16
80001730:	b9850513          	addi	a0,a0,-1128 # 80003b98 <_end+0xffde4b98>
80001734:	00112623          	sw	ra,12(sp)
80001738:	8d9fe0ef          	jal	ra,80000010 <main>
8000173c:	00050513          	mv	a0,a0
80001740:	00100073          	ebreak
80001744:	0000006f          	j	80001744 <_trm_init+0x1c>

80001748 <__am_timer_config>:
80001748:	00100793          	li	a5,1
8000174c:	00f50023          	sb	a5,0(a0)
80001750:	00f500a3          	sb	a5,1(a0)
80001754:	00008067          	ret

80001758 <__am_input_config>:
80001758:	00100793          	li	a5,1
8000175c:	00f50023          	sb	a5,0(a0)
80001760:	00008067          	ret

80001764 <__am_uart_config>:
80001764:	00050023          	sb	zero,0(a0)
80001768:	00008067          	ret

8000176c <__am_net_config>:
8000176c:	00050023          	sb	zero,0(a0)
80001770:	00008067          	ret

80001774 <fail>:
80001774:	ff010113          	addi	sp,sp,-16
80001778:	00812423          	sw	s0,8(sp)
8000177c:	80004437          	lui	s0,0x80004
80001780:	00112623          	sw	ra,12(sp)
80001784:	9d440413          	addi	s0,s0,-1580 # 800039d4 <_end+0xffde49d4>
80001788:	04100513          	li	a0,65
8000178c:	00140413          	addi	s0,s0,1
80001790:	f81ff0ef          	jal	ra,80001710 <putch>
80001794:	00044503          	lbu	a0,0(s0)
80001798:	fe051ae3          	bnez	a0,8000178c <fail+0x18>
8000179c:	80004437          	lui	s0,0x80004
800017a0:	9e040413          	addi	s0,s0,-1568 # 800039e0 <_end+0xffde49e0>
800017a4:	06100513          	li	a0,97
800017a8:	00140413          	addi	s0,s0,1
800017ac:	f65ff0ef          	jal	ra,80001710 <putch>
800017b0:	00044503          	lbu	a0,0(s0)
800017b4:	fe051ae3          	bnez	a0,800017a8 <fail+0x34>
800017b8:	80004437          	lui	s0,0x80004
800017bc:	9fc40413          	addi	s0,s0,-1540 # 800039fc <_end+0xffde49fc>
800017c0:	02000513          	li	a0,32
800017c4:	00140413          	addi	s0,s0,1
800017c8:	f49ff0ef          	jal	ra,80001710 <putch>
800017cc:	00044503          	lbu	a0,0(s0)
800017d0:	fe051ae3          	bnez	a0,800017c4 <fail+0x50>
800017d4:	00100513          	li	a0,1
800017d8:	f45ff0ef          	jal	ra,8000171c <halt>

800017dc <ioe_init>:
800017dc:	801ec7b7          	lui	a5,0x801ec
800017e0:	ff010113          	addi	sp,sp,-16
800017e4:	76478793          	addi	a5,a5,1892 # 801ec764 <_end+0xfffcd764>
800017e8:	80001637          	lui	a2,0x80001
800017ec:	00112623          	sw	ra,12(sp)
800017f0:	20078693          	addi	a3,a5,512
800017f4:	77460613          	addi	a2,a2,1908 # 80001774 <_end+0xffde2774>
800017f8:	00c0006f          	j	80001804 <ioe_init+0x28>
800017fc:	00478793          	addi	a5,a5,4
80001800:	00d78c63          	beq	a5,a3,80001818 <ioe_init+0x3c>
80001804:	0007a703          	lw	a4,0(a5)
80001808:	fe071ae3          	bnez	a4,800017fc <ioe_init+0x20>
8000180c:	00c7a023          	sw	a2,0(a5)
80001810:	00478793          	addi	a5,a5,4
80001814:	fed798e3          	bne	a5,a3,80001804 <ioe_init+0x28>
80001818:	108000ef          	jal	ra,80001920 <__am_gpu_init>
8000181c:	050000ef          	jal	ra,8000186c <__am_timer_init>
80001820:	260000ef          	jal	ra,80001a80 <__am_audio_init>
80001824:	00c12083          	lw	ra,12(sp)
80001828:	00100513          	li	a0,1
8000182c:	01010113          	addi	sp,sp,16
80001830:	00008067          	ret

80001834 <ioe_read>:
80001834:	801ec7b7          	lui	a5,0x801ec
80001838:	00251513          	slli	a0,a0,0x2
8000183c:	76478793          	addi	a5,a5,1892 # 801ec764 <_end+0xfffcd764>
80001840:	00a787b3          	add	a5,a5,a0
80001844:	0007a783          	lw	a5,0(a5)
80001848:	00058513          	mv	a0,a1
8000184c:	00078067          	jr	a5

80001850 <ioe_write>:
80001850:	801ec7b7          	lui	a5,0x801ec
80001854:	00251513          	slli	a0,a0,0x2
80001858:	76478793          	addi	a5,a5,1892 # 801ec764 <_end+0xfffcd764>
8000185c:	00a787b3          	add	a5,a5,a0
80001860:	0007a783          	lw	a5,0(a5)
80001864:	00058513          	mv	a0,a1
80001868:	00078067          	jr	a5

8000186c <__am_timer_init>:
8000186c:	a00007b7          	lui	a5,0xa0000
80001870:	04c7a703          	lw	a4,76(a5) # a000004c <_end+0x1fde104c>
80001874:	0487a683          	lw	a3,72(a5)
80001878:	802167b7          	lui	a5,0x80216
8000187c:	02078793          	addi	a5,a5,32 # 80216020 <_end+0xffff7020>
80001880:	00d7a023          	sw	a3,0(a5)
80001884:	00e7a223          	sw	a4,4(a5)
80001888:	00008067          	ret

8000188c <__am_timer_uptime>:
8000188c:	80216637          	lui	a2,0x80216
80001890:	a00006b7          	lui	a3,0xa0000
80001894:	02060613          	addi	a2,a2,32 # 80216020 <_end+0xffff7020>
80001898:	04c6a783          	lw	a5,76(a3) # a000004c <_end+0x1fde104c>
8000189c:	00062703          	lw	a4,0(a2)
800018a0:	0486a683          	lw	a3,72(a3)
800018a4:	00462603          	lw	a2,4(a2)
800018a8:	40e68733          	sub	a4,a3,a4
800018ac:	00e6b6b3          	sltu	a3,a3,a4
800018b0:	40d787b3          	sub	a5,a5,a3
800018b4:	40c787b3          	sub	a5,a5,a2
800018b8:	00e52023          	sw	a4,0(a0)
800018bc:	00f52223          	sw	a5,4(a0)
800018c0:	00008067          	ret

800018c4 <__am_timer_rtc>:
800018c4:	76c00793          	li	a5,1900
800018c8:	00052a23          	sw	zero,20(a0)
800018cc:	00052823          	sw	zero,16(a0)
800018d0:	00052623          	sw	zero,12(a0)
800018d4:	00052423          	sw	zero,8(a0)
800018d8:	00052223          	sw	zero,4(a0)
800018dc:	00f52023          	sw	a5,0(a0)
800018e0:	00008067          	ret

800018e4 <__am_input_keybrd>:
800018e4:	a00007b7          	lui	a5,0xa0000
800018e8:	0607a783          	lw	a5,96(a5) # a0000060 <_end+0x1fde1060>
800018ec:	02078063          	beqz	a5,8000190c <__am_input_keybrd+0x28>
800018f0:	ffff8737          	lui	a4,0xffff8
800018f4:	fff70713          	addi	a4,a4,-1 # ffff7fff <_end+0x7fdd8fff>
800018f8:	00e7f7b3          	and	a5,a5,a4
800018fc:	00100713          	li	a4,1
80001900:	00e50023          	sb	a4,0(a0)
80001904:	00f52223          	sw	a5,4(a0)
80001908:	00008067          	ret
8000190c:	00000713          	li	a4,0
80001910:	00000793          	li	a5,0
80001914:	00e50023          	sb	a4,0(a0)
80001918:	00f52223          	sw	a5,4(a0)
8000191c:	00008067          	ret

80001920 <__am_gpu_init>:
80001920:	a00007b7          	lui	a5,0xa0000
80001924:	1027d683          	lhu	a3,258(a5) # a0000102 <_end+0x1fde1102>
80001928:	1007d783          	lhu	a5,256(a5)
8000192c:	02f686b3          	mul	a3,a3,a5
80001930:	00068e63          	beqz	a3,8000194c <__am_gpu_init+0x2c>
80001934:	a1000737          	lui	a4,0xa1000
80001938:	00000793          	li	a5,0
8000193c:	00f72023          	sw	a5,0(a4) # a1000000 <_end+0x20de1000>
80001940:	00178793          	addi	a5,a5,1
80001944:	00470713          	addi	a4,a4,4
80001948:	fed79ae3          	bne	a5,a3,8000193c <__am_gpu_init+0x1c>
8000194c:	a00007b7          	lui	a5,0xa0000
80001950:	00100713          	li	a4,1
80001954:	10e7a223          	sw	a4,260(a5) # a0000104 <_end+0x1fde1104>
80001958:	00008067          	ret

8000195c <__am_gpu_config>:
8000195c:	a00007b7          	lui	a5,0xa0000
80001960:	1027d703          	lhu	a4,258(a5) # a0000102 <_end+0x1fde1102>
80001964:	1007d783          	lhu	a5,256(a5)
80001968:	00100693          	li	a3,1
8000196c:	00d51023          	sh	a3,0(a0)
80001970:	00e52223          	sw	a4,4(a0)
80001974:	00f52423          	sw	a5,8(a0)
80001978:	00052623          	sw	zero,12(a0)
8000197c:	00008067          	ret

80001980 <__am_gpu_fbdraw>:
80001980:	00c52783          	lw	a5,12(a0)
80001984:	fd010113          	addi	sp,sp,-48
80001988:	01312e23          	sw	s3,28(sp)
8000198c:	02112623          	sw	ra,44(sp)
80001990:	02812423          	sw	s0,40(sp)
80001994:	02912223          	sw	s1,36(sp)
80001998:	03212023          	sw	s2,32(sp)
8000199c:	01412c23          	sw	s4,24(sp)
800019a0:	01512a23          	sw	s5,20(sp)
800019a4:	01612823          	sw	s6,16(sp)
800019a8:	01712623          	sw	s7,12(sp)
800019ac:	00050993          	mv	s3,a0
800019b0:	00078663          	beqz	a5,800019bc <__am_gpu_fbdraw+0x3c>
800019b4:	01052a83          	lw	s5,16(a0)
800019b8:	040a9263          	bnez	s5,800019fc <__am_gpu_fbdraw+0x7c>
800019bc:	0149c783          	lbu	a5,20(s3)
800019c0:	00078863          	beqz	a5,800019d0 <__am_gpu_fbdraw+0x50>
800019c4:	a00007b7          	lui	a5,0xa0000
800019c8:	00100713          	li	a4,1
800019cc:	10e7a223          	sw	a4,260(a5) # a0000104 <_end+0x1fde1104>
800019d0:	02c12083          	lw	ra,44(sp)
800019d4:	02812403          	lw	s0,40(sp)
800019d8:	02412483          	lw	s1,36(sp)
800019dc:	02012903          	lw	s2,32(sp)
800019e0:	01c12983          	lw	s3,28(sp)
800019e4:	01812a03          	lw	s4,24(sp)
800019e8:	01412a83          	lw	s5,20(sp)
800019ec:	01012b03          	lw	s6,16(sp)
800019f0:	00c12b83          	lw	s7,12(sp)
800019f4:	03010113          	addi	sp,sp,48
800019f8:	00008067          	ret
800019fc:	a0000737          	lui	a4,0xa0000
80001a00:	10275b03          	lhu	s6,258(a4) # a0000102 <_end+0x1fde1102>
80001a04:	00052683          	lw	a3,0(a0)
80001a08:	00452403          	lw	s0,4(a0)
80001a0c:	00852483          	lw	s1,8(a0)
80001a10:	40db0bb3          	sub	s7,s6,a3
80001a14:	010b1b13          	slli	s6,s6,0x10
80001a18:	010b5b13          	srli	s6,s6,0x10
80001a1c:	0577c863          	blt	a5,s7,80001a6c <__am_gpu_fbdraw+0xec>
80001a20:	008a8ab3          	add	s5,s5,s0
80001a24:	002b9b93          	slli	s7,s7,0x2
80001a28:	f9545ae3          	bge	s0,s5,800019bc <__am_gpu_fbdraw+0x3c>
80001a2c:	028b0733          	mul	a4,s6,s0
80001a30:	00279a13          	slli	s4,a5,0x2
80001a34:	a1000937          	lui	s2,0xa1000
80001a38:	002b1b13          	slli	s6,s6,0x2
80001a3c:	00d707b3          	add	a5,a4,a3
80001a40:	00279793          	slli	a5,a5,0x2
80001a44:	00f90933          	add	s2,s2,a5
80001a48:	00048593          	mv	a1,s1
80001a4c:	00090513          	mv	a0,s2
80001a50:	000b8613          	mv	a2,s7
80001a54:	00140413          	addi	s0,s0,1
80001a58:	35d000ef          	jal	ra,800025b4 <memcpy>
80001a5c:	01690933          	add	s2,s2,s6
80001a60:	014484b3          	add	s1,s1,s4
80001a64:	ff5412e3          	bne	s0,s5,80001a48 <__am_gpu_fbdraw+0xc8>
80001a68:	f55ff06f          	j	800019bc <__am_gpu_fbdraw+0x3c>
80001a6c:	00078b93          	mv	s7,a5
80001a70:	fb1ff06f          	j	80001a20 <__am_gpu_fbdraw+0xa0>

80001a74 <__am_gpu_status>:
80001a74:	00100793          	li	a5,1
80001a78:	00f50023          	sb	a5,0(a0)
80001a7c:	00008067          	ret

80001a80 <__am_audio_init>:
80001a80:	00008067          	ret

80001a84 <__am_audio_config>:
80001a84:	00050023          	sb	zero,0(a0)
80001a88:	00008067          	ret

80001a8c <__am_audio_ctrl>:
80001a8c:	00008067          	ret

80001a90 <__am_audio_status>:
80001a90:	00052023          	sw	zero,0(a0)
80001a94:	00008067          	ret

80001a98 <__am_audio_play>:
80001a98:	00008067          	ret

80001a9c <__am_disk_config>:
80001a9c:	00050023          	sb	zero,0(a0)
80001aa0:	00008067          	ret

80001aa4 <__am_disk_status>:
80001aa4:	00008067          	ret

80001aa8 <__am_disk_blkio>:
80001aa8:	00008067          	ret

80001aac <__am_irq_handle>:
80001aac:	802167b7          	lui	a5,0x80216
80001ab0:	0287a703          	lw	a4,40(a5) # 80216028 <_end+0xffff7028>
80001ab4:	00050593          	mv	a1,a0
80001ab8:	08070663          	beqz	a4,80001b44 <__am_irq_handle+0x98>
80001abc:	08052783          	lw	a5,128(a0)
80001ac0:	fd010113          	addi	sp,sp,-48
80001ac4:	02112623          	sw	ra,44(sp)
80001ac8:	00012a23          	sw	zero,20(sp)
80001acc:	00012c23          	sw	zero,24(sp)
80001ad0:	00012e23          	sw	zero,28(sp)
80001ad4:	00800693          	li	a3,8
80001ad8:	04d78463          	beq	a5,a3,80001b20 <__am_irq_handle+0x74>
80001adc:	00b00693          	li	a3,11
80001ae0:	04d78063          	beq	a5,a3,80001b20 <__am_irq_handle+0x74>
80001ae4:	00400793          	li	a5,4
80001ae8:	00f12823          	sw	a5,16(sp)
80001aec:	01012783          	lw	a5,16(sp)
80001af0:	00010513          	mv	a0,sp
80001af4:	00f12023          	sw	a5,0(sp)
80001af8:	01412783          	lw	a5,20(sp)
80001afc:	00f12223          	sw	a5,4(sp)
80001b00:	01812783          	lw	a5,24(sp)
80001b04:	00f12423          	sw	a5,8(sp)
80001b08:	01c12783          	lw	a5,28(sp)
80001b0c:	00f12623          	sw	a5,12(sp)
80001b10:	000700e7          	jalr	a4
80001b14:	02c12083          	lw	ra,44(sp)
80001b18:	03010113          	addi	sp,sp,48
80001b1c:	00008067          	ret
80001b20:	0445a783          	lw	a5,68(a1)
80001b24:	0885a683          	lw	a3,136(a1)
80001b28:	00178793          	addi	a5,a5,1
80001b2c:	00f037b3          	snez	a5,a5
80001b30:	00178793          	addi	a5,a5,1
80001b34:	00468693          	addi	a3,a3,4
80001b38:	00f12823          	sw	a5,16(sp)
80001b3c:	08d5a423          	sw	a3,136(a1)
80001b40:	fadff06f          	j	80001aec <__am_irq_handle+0x40>
80001b44:	00008067          	ret

80001b48 <cte_init>:
80001b48:	800027b7          	lui	a5,0x80002
80001b4c:	ba078793          	addi	a5,a5,-1120 # 80001ba0 <_end+0xffde2ba0>
80001b50:	30579073          	csrw	mtvec,a5
80001b54:	802167b7          	lui	a5,0x80216
80001b58:	02a7a423          	sw	a0,40(a5) # 80216028 <_end+0xffff7028>
80001b5c:	00100513          	li	a0,1
80001b60:	00008067          	ret

80001b64 <kcontext>:
80001b64:	000027b7          	lui	a5,0x2
80001b68:	f7058513          	addi	a0,a1,-144
80001b6c:	88078793          	addi	a5,a5,-1920 # 1880 <_entry_offset+0x1880>
80001b70:	ff010113          	addi	sp,sp,-16
80001b74:	0005a023          	sw	zero,0(a1)
80001b78:	fec5ac23          	sw	a2,-8(a1)
80001b7c:	fef5aa23          	sw	a5,-12(a1)
80001b80:	f8a5ac23          	sw	a0,-104(a1)
80001b84:	f6b5ac23          	sw	a1,-136(a1)
80001b88:	01010113          	addi	sp,sp,16
80001b8c:	00008067          	ret

80001b90 <yield>:
80001b90:	fff00893          	li	a7,-1
80001b94:	00000073          	ecall
80001b98:	00008067          	ret
80001b9c:	0000                	.2byte	0x0
	...

80001ba0 <__am_asm_trap>:
80001ba0:	f7010113          	addi	sp,sp,-144
80001ba4:	00112223          	sw	ra,4(sp)
80001ba8:	00312623          	sw	gp,12(sp)
80001bac:	00412823          	sw	tp,16(sp)
80001bb0:	00512a23          	sw	t0,20(sp)
80001bb4:	00612c23          	sw	t1,24(sp)
80001bb8:	00712e23          	sw	t2,28(sp)
80001bbc:	02812023          	sw	s0,32(sp)
80001bc0:	02912223          	sw	s1,36(sp)
80001bc4:	02a12423          	sw	a0,40(sp)
80001bc8:	02b12623          	sw	a1,44(sp)
80001bcc:	02c12823          	sw	a2,48(sp)
80001bd0:	02d12a23          	sw	a3,52(sp)
80001bd4:	02e12c23          	sw	a4,56(sp)
80001bd8:	02f12e23          	sw	a5,60(sp)
80001bdc:	05012023          	sw	a6,64(sp)
80001be0:	05112223          	sw	a7,68(sp)
80001be4:	05212423          	sw	s2,72(sp)
80001be8:	05312623          	sw	s3,76(sp)
80001bec:	05412823          	sw	s4,80(sp)
80001bf0:	05512a23          	sw	s5,84(sp)
80001bf4:	05612c23          	sw	s6,88(sp)
80001bf8:	05712e23          	sw	s7,92(sp)
80001bfc:	07812023          	sw	s8,96(sp)
80001c00:	07912223          	sw	s9,100(sp)
80001c04:	07a12423          	sw	s10,104(sp)
80001c08:	07b12623          	sw	s11,108(sp)
80001c0c:	07c12823          	sw	t3,112(sp)
80001c10:	07d12a23          	sw	t4,116(sp)
80001c14:	07e12c23          	sw	t5,120(sp)
80001c18:	07f12e23          	sw	t6,124(sp)
80001c1c:	342022f3          	csrr	t0,mcause
80001c20:	30002373          	csrr	t1,mstatus
80001c24:	341023f3          	csrr	t2,mepc
80001c28:	08512023          	sw	t0,128(sp)
80001c2c:	08612223          	sw	t1,132(sp)
80001c30:	08712423          	sw	t2,136(sp)
80001c34:	00020537          	lui	a0,0x20
80001c38:	00a36333          	or	t1,t1,a0
80001c3c:	30031073          	csrw	mstatus,t1
80001c40:	00010513          	mv	a0,sp
80001c44:	e69ff0ef          	jal	ra,80001aac <__am_irq_handle>
80001c48:	00050113          	mv	sp,a0
80001c4c:	08412303          	lw	t1,132(sp)
80001c50:	08812383          	lw	t2,136(sp)
80001c54:	30031073          	csrw	mstatus,t1
80001c58:	34139073          	csrw	mepc,t2
80001c5c:	00412083          	lw	ra,4(sp)
80001c60:	00c12183          	lw	gp,12(sp)
80001c64:	01012203          	lw	tp,16(sp)
80001c68:	01412283          	lw	t0,20(sp)
80001c6c:	01812303          	lw	t1,24(sp)
80001c70:	01c12383          	lw	t2,28(sp)
80001c74:	02012403          	lw	s0,32(sp)
80001c78:	02412483          	lw	s1,36(sp)
80001c7c:	02812503          	lw	a0,40(sp)
80001c80:	02c12583          	lw	a1,44(sp)
80001c84:	03012603          	lw	a2,48(sp)
80001c88:	03412683          	lw	a3,52(sp)
80001c8c:	03812703          	lw	a4,56(sp)
80001c90:	03c12783          	lw	a5,60(sp)
80001c94:	04012803          	lw	a6,64(sp)
80001c98:	04412883          	lw	a7,68(sp)
80001c9c:	04812903          	lw	s2,72(sp)
80001ca0:	04c12983          	lw	s3,76(sp)
80001ca4:	05012a03          	lw	s4,80(sp)
80001ca8:	05412a83          	lw	s5,84(sp)
80001cac:	05812b03          	lw	s6,88(sp)
80001cb0:	05c12b83          	lw	s7,92(sp)
80001cb4:	06012c03          	lw	s8,96(sp)
80001cb8:	06412c83          	lw	s9,100(sp)
80001cbc:	06812d03          	lw	s10,104(sp)
80001cc0:	06c12d83          	lw	s11,108(sp)
80001cc4:	07012e03          	lw	t3,112(sp)
80001cc8:	07412e83          	lw	t4,116(sp)
80001ccc:	07812f03          	lw	t5,120(sp)
80001cd0:	07c12f83          	lw	t6,124(sp)
80001cd4:	09010113          	addi	sp,sp,144
80001cd8:	30200073          	mret

80001cdc <vme_init>:
80001cdc:	fd010113          	addi	sp,sp,-48
80001ce0:	01812423          	sw	s8,8(sp)
80001ce4:	80216c37          	lui	s8,0x80216
80001ce8:	00050793          	mv	a5,a0
80001cec:	02812423          	sw	s0,40(sp)
80001cf0:	02912223          	sw	s1,36(sp)
80001cf4:	03212023          	sw	s2,32(sp)
80001cf8:	01412c23          	sw	s4,24(sp)
80001cfc:	01512a23          	sw	s5,20(sp)
80001d00:	01612823          	sw	s6,16(sp)
80001d04:	01712623          	sw	s7,12(sp)
80001d08:	02112623          	sw	ra,44(sp)
80001d0c:	01312e23          	sw	s3,28(sp)
80001d10:	02cc0c13          	addi	s8,s8,44 # 8021602c <_end+0xffff702c>
80001d14:	00001537          	lui	a0,0x1
80001d18:	80216a37          	lui	s4,0x80216
80001d1c:	80004bb7          	lui	s7,0x80004
80001d20:	00fc2023          	sw	a5,0(s8)
80001d24:	000a0a13          	mv	s4,s4
80001d28:	000780e7          	jalr	a5
80001d2c:	abcb8b93          	addi	s7,s7,-1348 # 80003abc <_end+0xffde4abc>
80001d30:	80000437          	lui	s0,0x80000
80001d34:	00050493          	mv	s1,a0
80001d38:	00aa2623          	sw	a0,12(s4) # 8021600c <_end+0xffff700c>
80001d3c:	018b8913          	addi	s2,s7,24
80001d40:	00040413          	mv	s0,s0
80001d44:	fffffb37          	lui	s6,0xfffff
80001d48:	00001ab7          	lui	s5,0x1
80001d4c:	004ba983          	lw	s3,4(s7)
80001d50:	03346a63          	bltu	s0,s3,80001d84 <vme_init+0xa8>
80001d54:	0580006f          	j	80001dac <vme_init+0xd0>
80001d58:	00c45793          	srli	a5,s0,0xc
80001d5c:	3ff7f793          	andi	a5,a5,1023
80001d60:	00279793          	slli	a5,a5,0x2
80001d64:	00f50533          	add	a0,a0,a5
80001d68:	00052783          	lw	a5,0(a0) # 1000 <_entry_offset+0x1000>
80001d6c:	0a079663          	bnez	a5,80001e18 <vme_init+0x13c>
80001d70:	016477b3          	and	a5,s0,s6
80001d74:	00f52023          	sw	a5,0(a0)
80001d78:	01540433          	add	s0,s0,s5
80001d7c:	00ca2483          	lw	s1,12(s4)
80001d80:	03347663          	bgeu	s0,s3,80001dac <vme_init+0xd0>
80001d84:	01645793          	srli	a5,s0,0x16
80001d88:	00279793          	slli	a5,a5,0x2
80001d8c:	00f484b3          	add	s1,s1,a5
80001d90:	0004a503          	lw	a0,0(s1)
80001d94:	fc0512e3          	bnez	a0,80001d58 <vme_init+0x7c>
80001d98:	000c2783          	lw	a5,0(s8)
80001d9c:	00001537          	lui	a0,0x1
80001da0:	000780e7          	jalr	a5
80001da4:	00a4a023          	sw	a0,0(s1)
80001da8:	fb1ff06f          	j	80001d58 <vme_init+0x7c>
80001dac:	008b8b93          	addi	s7,s7,8
80001db0:	01790663          	beq	s2,s7,80001dbc <vme_init+0xe0>
80001db4:	000ba403          	lw	s0,0(s7)
80001db8:	f95ff06f          	j	80001d4c <vme_init+0x70>
80001dbc:	800007b7          	lui	a5,0x80000
80001dc0:	00c4d493          	srli	s1,s1,0xc
80001dc4:	00f4e4b3          	or	s1,s1,a5
80001dc8:	18049073          	csrw	satp,s1
80001dcc:	80004537          	lui	a0,0x80004
80001dd0:	802167b7          	lui	a5,0x80216
80001dd4:	00100713          	li	a4,1
80001dd8:	aa850513          	addi	a0,a0,-1368 # 80003aa8 <_end+0xffde4aa8>
80001ddc:	02e7a823          	sw	a4,48(a5) # 80216030 <_end+0xffff7030>
80001de0:	474000ef          	jal	ra,80002254 <printf>
80001de4:	02c12083          	lw	ra,44(sp)
80001de8:	02812403          	lw	s0,40(sp)
80001dec:	02412483          	lw	s1,36(sp)
80001df0:	02012903          	lw	s2,32(sp)
80001df4:	01c12983          	lw	s3,28(sp)
80001df8:	01812a03          	lw	s4,24(sp)
80001dfc:	01412a83          	lw	s5,20(sp)
80001e00:	01012b03          	lw	s6,16(sp)
80001e04:	00c12b83          	lw	s7,12(sp)
80001e08:	00812c03          	lw	s8,8(sp)
80001e0c:	00100513          	li	a0,1
80001e10:	03010113          	addi	sp,sp,48
80001e14:	00008067          	ret
80001e18:	800045b7          	lui	a1,0x80004
80001e1c:	80004537          	lui	a0,0x80004
80001e20:	05f00613          	li	a2,95
80001e24:	a4c58593          	addi	a1,a1,-1460 # 80003a4c <_end+0xffde4a4c>
80001e28:	a8c50513          	addi	a0,a0,-1396 # 80003a8c <_end+0xffde4a8c>
80001e2c:	428000ef          	jal	ra,80002254 <printf>
80001e30:	00100513          	li	a0,1
80001e34:	8e9ff0ef          	jal	ra,8000171c <halt>

80001e38 <ucontext>:
80001e38:	000027b7          	lui	a5,0x2
80001e3c:	80078793          	addi	a5,a5,-2048 # 1800 <_entry_offset+0x1800>
80001e40:	ff010113          	addi	sp,sp,-16
80001e44:	fed62a23          	sw	a3,-12(a2)
80001e48:	fef62823          	sw	a5,-16(a2)
80001e4c:	f6c60513          	addi	a0,a2,-148
80001e50:	01010113          	addi	sp,sp,16
80001e54:	00008067          	ret

80001e58 <vsnprintf>:
80001e58:	f5010113          	addi	sp,sp,-176
80001e5c:	0a112623          	sw	ra,172(sp)
80001e60:	0a812423          	sw	s0,168(sp)
80001e64:	0a912223          	sw	s1,164(sp)
80001e68:	0b212023          	sw	s2,160(sp)
80001e6c:	09312e23          	sw	s3,156(sp)
80001e70:	09412c23          	sw	s4,152(sp)
80001e74:	09512a23          	sw	s5,148(sp)
80001e78:	09612823          	sw	s6,144(sp)
80001e7c:	09712623          	sw	s7,140(sp)
80001e80:	00064703          	lbu	a4,0(a2)
80001e84:	00050813          	mv	a6,a0
80001e88:	00000513          	li	a0,0
80001e8c:	38070c63          	beqz	a4,80002224 <vsnprintf+0x3cc>
80001e90:	800042b7          	lui	t0,0x80004
80001e94:	80004e37          	lui	t3,0x80004
80001e98:	00000313          	li	t1,0
80001e9c:	02500f93          	li	t6,37
80001ea0:	01500f13          	li	t5,21
80001ea4:	b0c28293          	addi	t0,t0,-1268 # 80003b0c <_end+0xffde4b0c>
80001ea8:	03000e93          	li	t4,48
80001eac:	02d00913          	li	s2,45
80001eb0:	b64e0e13          	addi	t3,t3,-1180 # 80003b64 <_end+0xffde4b64>
80001eb4:	fff00493          	li	s1,-1
80001eb8:	00800413          	li	s0,8
80001ebc:	00a00393          	li	t2,10
80001ec0:	00468993          	addi	s3,a3,4
80001ec4:	00130893          	addi	a7,t1,1
80001ec8:	00050793          	mv	a5,a0
80001ecc:	ffc98693          	addi	a3,s3,-4
80001ed0:	01160533          	add	a0,a2,a7
80001ed4:	40f30333          	sub	t1,t1,a5
80001ed8:	00078a13          	mv	s4,a5
80001edc:	00f308b3          	add	a7,t1,a5
80001ee0:	03f70263          	beq	a4,t6,80001f04 <vsnprintf+0xac>
80001ee4:	00178793          	addi	a5,a5,1
80001ee8:	00f80a33          	add	s4,a6,a5
80001eec:	feea0fa3          	sb	a4,-1(s4)
80001ef0:	00054703          	lbu	a4,0(a0)
80001ef4:	00150513          	addi	a0,a0,1
80001ef8:	fe0710e3          	bnez	a4,80001ed8 <vsnprintf+0x80>
80001efc:	00078513          	mv	a0,a5
80001f00:	0b40006f          	j	80001fb4 <vsnprintf+0x15c>
80001f04:	00054703          	lbu	a4,0(a0)
80001f08:	30070863          	beqz	a4,80002218 <vsnprintf+0x3c0>
80001f0c:	f9d70713          	addi	a4,a4,-99
80001f10:	0ff77713          	zext.b	a4,a4
80001f14:	30ef6c63          	bltu	t5,a4,8000222c <vsnprintf+0x3d4>
80001f18:	00271713          	slli	a4,a4,0x2
80001f1c:	00570733          	add	a4,a4,t0
80001f20:	00072703          	lw	a4,0(a4)
80001f24:	00070067          	jr	a4
80001f28:	ffc9a703          	lw	a4,-4(s3)
80001f2c:	00098693          	mv	a3,s3
80001f30:	00f80ab3          	add	s5,a6,a5
80001f34:	00178513          	addi	a0,a5,1
80001f38:	24071e63          	bnez	a4,80002194 <vsnprintf+0x33c>
80001f3c:	00288313          	addi	t1,a7,2
80001f40:	01da8023          	sb	t4,0(s5) # 1000 <_entry_offset+0x1000>
80001f44:	006607b3          	add	a5,a2,t1
80001f48:	0007c703          	lbu	a4,0(a5)
80001f4c:	06070263          	beqz	a4,80001fb0 <vsnprintf+0x158>
80001f50:	00498993          	addi	s3,s3,4
80001f54:	f71ff06f          	j	80001ec4 <vsnprintf+0x6c>
80001f58:	0006a983          	lw	s3,0(a3)
80001f5c:	00468693          	addi	a3,a3,4
80001f60:	0009c303          	lbu	t1,0(s3)
80001f64:	2a030463          	beqz	t1,8000220c <vsnprintf+0x3b4>
80001f68:	00f80733          	add	a4,a6,a5
80001f6c:	00178513          	addi	a0,a5,1
80001f70:	00670023          	sb	t1,0(a4)
80001f74:	00b56c63          	bltu	a0,a1,80001f8c <vsnprintf+0x134>
80001f78:	0240006f          	j	80001f9c <vsnprintf+0x144>
80001f7c:	00150513          	addi	a0,a0,1
80001f80:	00a80333          	add	t1,a6,a0
80001f84:	fee30fa3          	sb	a4,-1(t1)
80001f88:	00b57a63          	bgeu	a0,a1,80001f9c <vsnprintf+0x144>
80001f8c:	40f50733          	sub	a4,a0,a5
80001f90:	00e98733          	add	a4,s3,a4
80001f94:	00074703          	lbu	a4,0(a4)
80001f98:	fe0712e3          	bnez	a4,80001f7c <vsnprintf+0x124>
80001f9c:	00288893          	addi	a7,a7,2
80001fa0:	011607b3          	add	a5,a2,a7
80001fa4:	0007c703          	lbu	a4,0(a5)
80001fa8:	00088313          	mv	t1,a7
80001fac:	f0071ae3          	bnez	a4,80001ec0 <vsnprintf+0x68>
80001fb0:	00a80a33          	add	s4,a6,a0
80001fb4:	000a0023          	sb	zero,0(s4)
80001fb8:	0ac12083          	lw	ra,172(sp)
80001fbc:	0a812403          	lw	s0,168(sp)
80001fc0:	0a412483          	lw	s1,164(sp)
80001fc4:	0a012903          	lw	s2,160(sp)
80001fc8:	09c12983          	lw	s3,156(sp)
80001fcc:	09812a03          	lw	s4,152(sp)
80001fd0:	09412a83          	lw	s5,148(sp)
80001fd4:	09012b03          	lw	s6,144(sp)
80001fd8:	08c12b83          	lw	s7,140(sp)
80001fdc:	0b010113          	addi	sp,sp,176
80001fe0:	00008067          	ret
80001fe4:	0006a703          	lw	a4,0(a3)
80001fe8:	00468693          	addi	a3,a3,4
80001fec:	20070263          	beqz	a4,800021f0 <vsnprintf+0x398>
80001ff0:	00010993          	mv	s3,sp
80001ff4:	00000313          	li	t1,0
80001ff8:	00f77513          	andi	a0,a4,15
80001ffc:	00ae0533          	add	a0,t3,a0
80002000:	00054503          	lbu	a0,0(a0)
80002004:	00475713          	srli	a4,a4,0x4
80002008:	00030a93          	mv	s5,t1
8000200c:	00a98023          	sb	a0,0(s3)
80002010:	00130313          	addi	t1,t1,1
80002014:	00198993          	addi	s3,s3,1
80002018:	fe0710e3          	bnez	a4,80001ff8 <vsnprintf+0x1a0>
8000201c:	40640333          	sub	t1,s0,t1
80002020:	04605263          	blez	t1,80002064 <vsnprintf+0x20c>
80002024:	01480a33          	add	s4,a6,s4
80002028:	00178793          	addi	a5,a5,1
8000202c:	01da0023          	sb	t4,0(s4)
80002030:	02b7f463          	bgeu	a5,a1,80002058 <vsnprintf+0x200>
80002034:	00000713          	li	a4,0
80002038:	0140006f          	j	8000204c <vsnprintf+0x1f4>
8000203c:	00178793          	addi	a5,a5,1
80002040:	00f80533          	add	a0,a6,a5
80002044:	ffd50fa3          	sb	t4,-1(a0)
80002048:	00b7f663          	bgeu	a5,a1,80002054 <vsnprintf+0x1fc>
8000204c:	00170713          	addi	a4,a4,1
80002050:	fe6746e3          	blt	a4,t1,8000203c <vsnprintf+0x1e4>
80002054:	1a9a8c63          	beq	s5,s1,8000220c <vsnprintf+0x3b4>
80002058:	080a8713          	addi	a4,s5,128
8000205c:	00270733          	add	a4,a4,sp
80002060:	f8074503          	lbu	a0,-128(a4)
80002064:	00f80333          	add	t1,a6,a5
80002068:	00178713          	addi	a4,a5,1
8000206c:	00a30023          	sb	a0,0(t1)
80002070:	02b77663          	bgeu	a4,a1,8000209c <vsnprintf+0x244>
80002074:	01578533          	add	a0,a5,s5
80002078:	00150513          	addi	a0,a0,1
8000207c:	015107b3          	add	a5,sp,s5
80002080:	f0e50ee3          	beq	a0,a4,80001f9c <vsnprintf+0x144>
80002084:	fff7c983          	lbu	s3,-1(a5)
80002088:	00170713          	addi	a4,a4,1
8000208c:	00e80333          	add	t1,a6,a4
80002090:	ff330fa3          	sb	s3,-1(t1)
80002094:	fff78793          	addi	a5,a5,-1
80002098:	feb764e3          	bltu	a4,a1,80002080 <vsnprintf+0x228>
8000209c:	00070513          	mv	a0,a4
800020a0:	efdff06f          	j	80001f9c <vsnprintf+0x144>
800020a4:	ffc9a703          	lw	a4,-4(s3)
800020a8:	00288893          	addi	a7,a7,2
800020ac:	00178513          	addi	a0,a5,1
800020b0:	00098693          	mv	a3,s3
800020b4:	00f80ab3          	add	s5,a6,a5
800020b8:	00050b13          	mv	s6,a0
800020bc:	00088313          	mv	t1,a7
800020c0:	01160bb3          	add	s7,a2,a7
800020c4:	04071063          	bnez	a4,80002104 <vsnprintf+0x2ac>
800020c8:	01da8023          	sb	t4,0(s5)
800020cc:	000bc703          	lbu	a4,0(s7)
800020d0:	ee0700e3          	beqz	a4,80001fb0 <vsnprintf+0x158>
800020d4:	00498993          	addi	s3,s3,4
800020d8:	dedff06f          	j	80001ec4 <vsnprintf+0x6c>
800020dc:	ffc9a683          	lw	a3,-4(s3)
800020e0:	00f80733          	add	a4,a6,a5
800020e4:	00288313          	addi	t1,a7,2
800020e8:	00d70023          	sb	a3,0(a4)
800020ec:	00660733          	add	a4,a2,t1
800020f0:	00074703          	lbu	a4,0(a4)
800020f4:	00178513          	addi	a0,a5,1
800020f8:	ea070ce3          	beqz	a4,80001fb0 <vsnprintf+0x158>
800020fc:	00498993          	addi	s3,s3,4
80002100:	dc5ff06f          	j	80001ec4 <vsnprintf+0x6c>
80002104:	02075463          	bgez	a4,8000212c <vsnprintf+0x2d4>
80002108:	012a8023          	sb	s2,0(s5)
8000210c:	00050a13          	mv	s4,a0
80002110:	00b56a63          	bltu	a0,a1,80002124 <vsnprintf+0x2cc>
80002114:	000bc703          	lbu	a4,0(s7)
80002118:	e2071ce3          	bnez	a4,80001f50 <vsnprintf+0xf8>
8000211c:	00a80a33          	add	s4,a6,a0
80002120:	e95ff06f          	j	80001fb4 <vsnprintf+0x15c>
80002124:	40e00733          	neg	a4,a4
80002128:	00278b13          	addi	s6,a5,2
8000212c:	00010993          	mv	s3,sp
80002130:	00000313          	li	t1,0
80002134:	027767b3          	rem	a5,a4,t2
80002138:	00198993          	addi	s3,s3,1
8000213c:	00030513          	mv	a0,t1
80002140:	00130313          	addi	t1,t1,1
80002144:	02774733          	div	a4,a4,t2
80002148:	00fe07b3          	add	a5,t3,a5
8000214c:	0007ca83          	lbu	s5,0(a5)
80002150:	ff598fa3          	sb	s5,-1(s3)
80002154:	fe0710e3          	bnez	a4,80002134 <vsnprintf+0x2dc>
80002158:	01480a33          	add	s4,a6,s4
8000215c:	015a0023          	sb	s5,0(s4)
80002160:	000b0793          	mv	a5,s6
80002164:	0ebb7463          	bgeu	s6,a1,8000224c <vsnprintf+0x3f4>
80002168:	00a10733          	add	a4,sp,a0
8000216c:	00ab0533          	add	a0,s6,a0
80002170:	e2f508e3          	beq	a0,a5,80001fa0 <vsnprintf+0x148>
80002174:	fff74983          	lbu	s3,-1(a4)
80002178:	00178793          	addi	a5,a5,1
8000217c:	00f80333          	add	t1,a6,a5
80002180:	ff330fa3          	sb	s3,-1(t1)
80002184:	fff70713          	addi	a4,a4,-1
80002188:	feb7e4e3          	bltu	a5,a1,80002170 <vsnprintf+0x318>
8000218c:	00078513          	mv	a0,a5
80002190:	e11ff06f          	j	80001fa0 <vsnprintf+0x148>
80002194:	00010993          	mv	s3,sp
80002198:	00000313          	li	t1,0
8000219c:	00f77793          	andi	a5,a4,15
800021a0:	00fe07b3          	add	a5,t3,a5
800021a4:	0007c783          	lbu	a5,0(a5)
800021a8:	00475713          	srli	a4,a4,0x4
800021ac:	00030a13          	mv	s4,t1
800021b0:	00f98023          	sb	a5,0(s3)
800021b4:	00130313          	addi	t1,t1,1
800021b8:	00198993          	addi	s3,s3,1
800021bc:	fe0710e3          	bnez	a4,8000219c <vsnprintf+0x344>
800021c0:	00fa8023          	sb	a5,0(s5)
800021c4:	014107b3          	add	a5,sp,s4
800021c8:	01450a33          	add	s4,a0,s4
800021cc:	dcb578e3          	bgeu	a0,a1,80001f9c <vsnprintf+0x144>
800021d0:	dd4506e3          	beq	a0,s4,80001f9c <vsnprintf+0x144>
800021d4:	fff7c303          	lbu	t1,-1(a5)
800021d8:	00150513          	addi	a0,a0,1
800021dc:	00a80733          	add	a4,a6,a0
800021e0:	fe670fa3          	sb	t1,-1(a4)
800021e4:	fff78793          	addi	a5,a5,-1
800021e8:	feb564e3          	bltu	a0,a1,800021d0 <vsnprintf+0x378>
800021ec:	db1ff06f          	j	80001f9c <vsnprintf+0x144>
800021f0:	01480a33          	add	s4,a6,s4
800021f4:	00178793          	addi	a5,a5,1
800021f8:	01da0023          	sb	t4,0(s4)
800021fc:	00b7f863          	bgeu	a5,a1,8000220c <vsnprintf+0x3b4>
80002200:	fff00a93          	li	s5,-1
80002204:	00800313          	li	t1,8
80002208:	e2dff06f          	j	80002034 <vsnprintf+0x1dc>
8000220c:	00078513          	mv	a0,a5
80002210:	00288893          	addi	a7,a7,2
80002214:	d8dff06f          	j	80001fa0 <vsnprintf+0x148>
80002218:	00f80a33          	add	s4,a6,a5
8000221c:	00078513          	mv	a0,a5
80002220:	d95ff06f          	j	80001fb4 <vsnprintf+0x15c>
80002224:	00080a13          	mv	s4,a6
80002228:	d8dff06f          	j	80001fb4 <vsnprintf+0x15c>
8000222c:	800045b7          	lui	a1,0x80004
80002230:	80004537          	lui	a0,0x80004
80002234:	08100613          	li	a2,129
80002238:	ad458593          	addi	a1,a1,-1324 # 80003ad4 <_end+0xffde4ad4>
8000223c:	a8c50513          	addi	a0,a0,-1396 # 80003a8c <_end+0xffde4a8c>
80002240:	014000ef          	jal	ra,80002254 <printf>
80002244:	00100513          	li	a0,1
80002248:	cd4ff0ef          	jal	ra,8000171c <halt>
8000224c:	000b0513          	mv	a0,s6
80002250:	d51ff06f          	j	80001fa0 <vsnprintf+0x148>

80002254 <printf>:
80002254:	81010113          	addi	sp,sp,-2032
80002258:	7c912223          	sw	s1,1988(sp)
8000225c:	7c112623          	sw	ra,1996(sp)
80002260:	7c812423          	sw	s0,1992(sp)
80002264:	00001eb7          	lui	t4,0x1
80002268:	fa010113          	addi	sp,sp,-96
8000226c:	01010f13          	addi	t5,sp,16
80002270:	824e8e13          	addi	t3,t4,-2012 # 824 <_entry_offset+0x824>
80002274:	01ee0e33          	add	t3,t3,t5
80002278:	00be2023          	sw	a1,0(t3)
8000227c:	828e8593          	addi	a1,t4,-2008
80002280:	01e585b3          	add	a1,a1,t5
80002284:	00c5a023          	sw	a2,0(a1)
80002288:	82ce8613          	addi	a2,t4,-2004
8000228c:	01010f93          	addi	t6,sp,16
80002290:	01e60633          	add	a2,a2,t5
80002294:	830e8f13          	addi	t5,t4,-2000
80002298:	00d62023          	sw	a3,0(a2)
8000229c:	01ff0f33          	add	t5,t5,t6
800022a0:	00ef2023          	sw	a4,0(t5)
800022a4:	834e8713          	addi	a4,t4,-1996
800022a8:	01f70733          	add	a4,a4,t6
800022ac:	00f72023          	sw	a5,0(a4)
800022b0:	838e8713          	addi	a4,t4,-1992
800022b4:	01f70733          	add	a4,a4,t6
800022b8:	01072023          	sw	a6,0(a4)
800022bc:	fffffe37          	lui	t3,0xfffff
800022c0:	83ce8713          	addi	a4,t4,-1988
800022c4:	810e8793          	addi	a5,t4,-2032
800022c8:	834e8313          	addi	t1,t4,-1996
800022cc:	01f70733          	add	a4,a4,t6
800022d0:	01c787b3          	add	a5,a5,t3
800022d4:	00230333          	add	t1,t1,sp
800022d8:	01172023          	sw	a7,0(a4)
800022dc:	01f787b3          	add	a5,a5,t6
800022e0:	00050613          	mv	a2,a0
800022e4:	00030693          	mv	a3,t1
800022e8:	fff00593          	li	a1,-1
800022ec:	02010513          	addi	a0,sp,32
800022f0:	7e67ae23          	sw	t1,2044(a5)
800022f4:	00f12623          	sw	a5,12(sp)
800022f8:	b61ff0ef          	jal	ra,80001e58 <vsnprintf>
800022fc:	00050493          	mv	s1,a0
80002300:	02014503          	lbu	a0,32(sp)
80002304:	00050c63          	beqz	a0,8000231c <printf+0xc8>
80002308:	02010413          	addi	s0,sp,32
8000230c:	00140413          	addi	s0,s0,1 # 80000001 <_end+0xffde1001>
80002310:	c00ff0ef          	jal	ra,80001710 <putch>
80002314:	00044503          	lbu	a0,0(s0)
80002318:	fe051ae3          	bnez	a0,8000230c <printf+0xb8>
8000231c:	06010113          	addi	sp,sp,96
80002320:	7cc12083          	lw	ra,1996(sp)
80002324:	00048513          	mv	a0,s1
80002328:	7c812403          	lw	s0,1992(sp)
8000232c:	7c412483          	lw	s1,1988(sp)
80002330:	7f010113          	addi	sp,sp,2032
80002334:	00008067          	ret

80002338 <itoa>:
80002338:	fd010113          	addi	sp,sp,-48
8000233c:	02812423          	sw	s0,40(sp)
80002340:	02112623          	sw	ra,44(sp)
80002344:	00058413          	mv	s0,a1
80002348:	00000793          	li	a5,0
8000234c:	00a00693          	li	a3,10
80002350:	06050863          	beqz	a0,800023c0 <itoa+0x88>
80002354:	02d56733          	rem	a4,a0,a3
80002358:	02078613          	addi	a2,a5,32
8000235c:	00260633          	add	a2,a2,sp
80002360:	00178793          	addi	a5,a5,1
80002364:	0ff7f793          	zext.b	a5,a5
80002368:	02d54533          	div	a0,a0,a3
8000236c:	03070713          	addi	a4,a4,48
80002370:	fee60023          	sb	a4,-32(a2)
80002374:	fe0510e3          	bnez	a0,80002354 <itoa+0x1c>
80002378:	02078663          	beqz	a5,800023a4 <itoa+0x6c>
8000237c:	00010893          	mv	a7,sp
80002380:	fff78713          	addi	a4,a5,-1
80002384:	00e88733          	add	a4,a7,a4
80002388:	00040693          	mv	a3,s0
8000238c:	00074803          	lbu	a6,0(a4)
80002390:	00070613          	mv	a2,a4
80002394:	00168693          	addi	a3,a3,1
80002398:	ff068fa3          	sb	a6,-1(a3)
8000239c:	fff70713          	addi	a4,a4,-1
800023a0:	fec896e3          	bne	a7,a2,8000238c <itoa+0x54>
800023a4:	00f407b3          	add	a5,s0,a5
800023a8:	00078023          	sb	zero,0(a5)
800023ac:	02c12083          	lw	ra,44(sp)
800023b0:	00040513          	mv	a0,s0
800023b4:	02812403          	lw	s0,40(sp)
800023b8:	03010113          	addi	sp,sp,48
800023bc:	00008067          	ret
800023c0:	800035b7          	lui	a1,0x80003
800023c4:	00040513          	mv	a0,s0
800023c8:	8fc58593          	addi	a1,a1,-1796 # 800028fc <_end+0xffde38fc>
800023cc:	084000ef          	jal	ra,80002450 <strcat>
800023d0:	02c12083          	lw	ra,44(sp)
800023d4:	00040513          	mv	a0,s0
800023d8:	02812403          	lw	s0,40(sp)
800023dc:	03010113          	addi	sp,sp,48
800023e0:	00008067          	ret

800023e4 <strlen>:
800023e4:	00054783          	lbu	a5,0(a0)
800023e8:	00050693          	mv	a3,a0
800023ec:	02078063          	beqz	a5,8000240c <strlen+0x28>
800023f0:	00000793          	li	a5,0
800023f4:	00178793          	addi	a5,a5,1
800023f8:	00f68733          	add	a4,a3,a5
800023fc:	00074703          	lbu	a4,0(a4)
80002400:	00078513          	mv	a0,a5
80002404:	fe0718e3          	bnez	a4,800023f4 <strlen+0x10>
80002408:	00008067          	ret
8000240c:	00000513          	li	a0,0
80002410:	00008067          	ret

80002414 <strcpy>:
80002414:	0005c703          	lbu	a4,0(a1)
80002418:	02070663          	beqz	a4,80002444 <strcpy+0x30>
8000241c:	00000793          	li	a5,0
80002420:	00f506b3          	add	a3,a0,a5
80002424:	00178793          	addi	a5,a5,1
80002428:	00e68023          	sb	a4,0(a3)
8000242c:	00f58733          	add	a4,a1,a5
80002430:	00074703          	lbu	a4,0(a4)
80002434:	fe0716e3          	bnez	a4,80002420 <strcpy+0xc>
80002438:	00f507b3          	add	a5,a0,a5
8000243c:	00078023          	sb	zero,0(a5)
80002440:	00008067          	ret
80002444:	00050793          	mv	a5,a0
80002448:	00078023          	sb	zero,0(a5)
8000244c:	00008067          	ret

80002450 <strcat>:
80002450:	00054783          	lbu	a5,0(a0)
80002454:	04078863          	beqz	a5,800024a4 <strcat+0x54>
80002458:	00150713          	addi	a4,a0,1
8000245c:	00000793          	li	a5,0
80002460:	00074683          	lbu	a3,0(a4)
80002464:	00070613          	mv	a2,a4
80002468:	00178793          	addi	a5,a5,1
8000246c:	00170713          	addi	a4,a4,1
80002470:	fe0698e3          	bnez	a3,80002460 <strcat+0x10>
80002474:	0005c703          	lbu	a4,0(a1)
80002478:	00178793          	addi	a5,a5,1
8000247c:	00158593          	addi	a1,a1,1
80002480:	00e60023          	sb	a4,0(a2)
80002484:	00f507b3          	add	a5,a0,a5
80002488:	00070c63          	beqz	a4,800024a0 <strcat+0x50>
8000248c:	0005c703          	lbu	a4,0(a1)
80002490:	00178793          	addi	a5,a5,1
80002494:	00158593          	addi	a1,a1,1
80002498:	fee78fa3          	sb	a4,-1(a5)
8000249c:	fe0718e3          	bnez	a4,8000248c <strcat+0x3c>
800024a0:	00008067          	ret
800024a4:	00050613          	mv	a2,a0
800024a8:	00000793          	li	a5,0
800024ac:	fc9ff06f          	j	80002474 <strcat+0x24>

800024b0 <strncat>:
800024b0:	00054783          	lbu	a5,0(a0)
800024b4:	06078863          	beqz	a5,80002524 <strncat+0x74>
800024b8:	00150793          	addi	a5,a0,1
800024bc:	00000693          	li	a3,0
800024c0:	0007c883          	lbu	a7,0(a5)
800024c4:	00168693          	addi	a3,a3,1
800024c8:	00078713          	mv	a4,a5
800024cc:	00068813          	mv	a6,a3
800024d0:	00178793          	addi	a5,a5,1
800024d4:	fe0896e3          	bnez	a7,800024c0 <strncat+0x10>
800024d8:	010506b3          	add	a3,a0,a6
800024dc:	010608b3          	add	a7,a2,a6
800024e0:	00080793          	mv	a5,a6
800024e4:	00061a63          	bnez	a2,800024f8 <strncat+0x48>
800024e8:	0280006f          	j	80002510 <strncat+0x60>
800024ec:	00c68023          	sb	a2,0(a3)
800024f0:	00170693          	addi	a3,a4,1
800024f4:	03178263          	beq	a5,a7,80002518 <strncat+0x68>
800024f8:	41078733          	sub	a4,a5,a6
800024fc:	00e58733          	add	a4,a1,a4
80002500:	00074603          	lbu	a2,0(a4)
80002504:	00178793          	addi	a5,a5,1
80002508:	00068713          	mv	a4,a3
8000250c:	fe0610e3          	bnez	a2,800024ec <strncat+0x3c>
80002510:	00070023          	sb	zero,0(a4)
80002514:	00008067          	ret
80002518:	00f50733          	add	a4,a0,a5
8000251c:	00070023          	sb	zero,0(a4)
80002520:	00008067          	ret
80002524:	00050713          	mv	a4,a0
80002528:	00000813          	li	a6,0
8000252c:	fadff06f          	j	800024d8 <strncat+0x28>

80002530 <strcmp>:
80002530:	04050063          	beqz	a0,80002570 <strcmp+0x40>
80002534:	04058c63          	beqz	a1,8000258c <strcmp+0x5c>
80002538:	00054683          	lbu	a3,0(a0)
8000253c:	00000793          	li	a5,0
80002540:	00069a63          	bnez	a3,80002554 <strcmp+0x24>
80002544:	03c0006f          	j	80002580 <strcmp+0x50>
80002548:	02d71063          	bne	a4,a3,80002568 <strcmp+0x38>
8000254c:	00064683          	lbu	a3,0(a2)
80002550:	02068663          	beqz	a3,8000257c <strcmp+0x4c>
80002554:	00f58733          	add	a4,a1,a5
80002558:	00074703          	lbu	a4,0(a4)
8000255c:	00178793          	addi	a5,a5,1
80002560:	00f50633          	add	a2,a0,a5
80002564:	fe0712e3          	bnez	a4,80002548 <strcmp+0x18>
80002568:	40e68533          	sub	a0,a3,a4
8000256c:	00008067          	ret
80002570:	00b035b3          	snez	a1,a1
80002574:	40b00533          	neg	a0,a1
80002578:	00008067          	ret
8000257c:	00f585b3          	add	a1,a1,a5
80002580:	0005c703          	lbu	a4,0(a1)
80002584:	40e68533          	sub	a0,a3,a4
80002588:	00008067          	ret
8000258c:	00100513          	li	a0,1
80002590:	00008067          	ret

80002594 <memset>:
80002594:	0ff5f593          	zext.b	a1,a1
80002598:	00050793          	mv	a5,a0
8000259c:	00c50733          	add	a4,a0,a2
800025a0:	00060863          	beqz	a2,800025b0 <memset+0x1c>
800025a4:	00b78023          	sb	a1,0(a5)
800025a8:	00178793          	addi	a5,a5,1
800025ac:	fee79ce3          	bne	a5,a4,800025a4 <memset+0x10>
800025b0:	00008067          	ret

800025b4 <memcpy>:
800025b4:	02060063          	beqz	a2,800025d4 <memcpy+0x20>
800025b8:	00050793          	mv	a5,a0
800025bc:	00c58633          	add	a2,a1,a2
800025c0:	0005c703          	lbu	a4,0(a1)
800025c4:	00158593          	addi	a1,a1,1
800025c8:	00178793          	addi	a5,a5,1
800025cc:	fee78fa3          	sb	a4,-1(a5)
800025d0:	fec598e3          	bne	a1,a2,800025c0 <memcpy+0xc>
800025d4:	00008067          	ret
